
arm/app_process32:     file format elf32-littlearm


Disassembly of section .plt:

000013c4 <__libc_init@plt-0x14>:
    13c4:	e52de004 	push	{lr}		; (str lr, [sp, #-4]!)
    13c8:	e59fe004 	ldr	lr, [pc, #4]	; 13d4 <__libc_init@plt-0x4>
    13cc:	e08fe00e 	add	lr, pc, lr
    13d0:	e5bef008 	ldr	pc, [lr, #8]!
    13d4:	00005b00 	andeq	r5, r0, r0, lsl #22

000013d8 <__libc_init@plt>:
    13d8:	e28fc600 	add	ip, pc, #0, 12
    13dc:	e28cca05 	add	ip, ip, #20480	; 0x5000
    13e0:	e5bcfb00 	ldr	pc, [ip, #2816]!	; 0xb00

000013e4 <__cxa_atexit@plt>:
    13e4:	e28fc600 	add	ip, pc, #0, 12
    13e8:	e28cca05 	add	ip, ip, #20480	; 0x5000
    13ec:	e5bcfaf8 	ldr	pc, [ip, #2808]!	; 0xaf8

000013f0 <__register_atfork@plt>:
    13f0:	e28fc600 	add	ip, pc, #0, 12
    13f4:	e28cca05 	add	ip, ip, #20480	; 0x5000
    13f8:	e5bcfaf0 	ldr	pc, [ip, #2800]!	; 0xaf0

000013fc <_Znwj@plt>:
    13fc:	e28fc600 	add	ip, pc, #0, 12
    1400:	e28cca05 	add	ip, ip, #20480	; 0x5000
    1404:	e5bcfae8 	ldr	pc, [ip, #2792]!	; 0xae8

00001408 <__aeabi_memcpy@plt>:
    1408:	e28fc600 	add	ip, pc, #0, 12
    140c:	e28cca05 	add	ip, ip, #20480	; 0x5000
    1410:	e5bcfae0 	ldr	pc, [ip, #2784]!	; 0xae0

00001414 <_ZN7android4base11GetPropertyERKNSt3__112basic_stringIcNS1_11char_traitsIcEENS1_9allocatorIcEEEES9_@plt>:
    1414:	e28fc600 	add	ip, pc, #0, 12
    1418:	e28cca05 	add	ip, ip, #20480	; 0x5000
    141c:	e5bcfad8 	ldr	pc, [ip, #2776]!	; 0xad8

00001420 <_ZdlPv@plt>:
    1420:	e28fc600 	add	ip, pc, #0, 12
    1424:	e28cca05 	add	ip, ip, #20480	; 0x5000
    1428:	e5bcfad0 	ldr	pc, [ip, #2768]!	; 0xad0

0000142c <strncmp@plt>:
    142c:	e28fc600 	add	ip, pc, #0, 12
    1430:	e28cca05 	add	ip, ip, #20480	; 0x5000
    1434:	e5bcfac8 	ldr	pc, [ip, #2760]!	; 0xac8

00001438 <strlen@plt>:
    1438:	e28fc600 	add	ip, pc, #0, 12
    143c:	e28cca05 	add	ip, ip, #20480	; 0x5000
    1440:	e5bcfac0 	ldr	pc, [ip, #2752]!	; 0xac0

00001444 <strcmp@plt>:
    1444:	e28fc600 	add	ip, pc, #0, 12
    1448:	e28cca05 	add	ip, ip, #20480	; 0x5000
    144c:	e5bcfab8 	ldr	pc, [ip, #2744]!	; 0xab8

00001450 <strdup@plt>:
    1450:	e28fc600 	add	ip, pc, #0, 12
    1454:	e28cca05 	add	ip, ip, #20480	; 0x5000
    1458:	e5bcfab0 	ldr	pc, [ip, #2736]!	; 0xab0

0000145c <_ZN7android14AndroidRuntime9addOptionEPKcPv@plt>:
    145c:	e28fc600 	add	ip, pc, #0, 12
    1460:	e28cca05 	add	ip, ip, #20480	; 0x5000
    1464:	e5bcfaa8 	ldr	pc, [ip, #2728]!	; 0xaa8

00001468 <_ZN7android7String8C1Ev@plt>:
    1468:	e28fc600 	add	ip, pc, #0, 12
    146c:	e28cca05 	add	ip, ip, #20480	; 0x5000
    1470:	e5bcfaa0 	ldr	pc, [ip, #2720]!	; 0xaa0

00001474 <_ZN7android7String85setToEPKc@plt>:
    1474:	e28fc600 	add	ip, pc, #0, 12
    1478:	e28cca05 	add	ip, ip, #20480	; 0x5000
    147c:	e5bcfa98 	ldr	pc, [ip, #2712]!	; 0xa98

00001480 <_ZN7android10VectorImplC2Ejj@plt>:
    1480:	e28fc600 	add	ip, pc, #0, 12
    1484:	e28cca05 	add	ip, ip, #20480	; 0x5000
    1488:	e5bcfa90 	ldr	pc, [ip, #2704]!	; 0xa90

0000148c <_ZNK7android7String86lengthEv@plt>:
    148c:	e28fc600 	add	ip, pc, #0, 12
    1490:	e28cca05 	add	ip, ip, #20480	; 0x5000
    1494:	e5bcfa88 	ldr	pc, [ip, #2696]!	; 0xa88

00001498 <getenv@plt>:
    1498:	e28fc600 	add	ip, pc, #0, 12
    149c:	e28cca05 	add	ip, ip, #20480	; 0x5000
    14a0:	e5bcfa80 	ldr	pc, [ip, #2688]!	; 0xa80

000014a4 <mkdir@plt>:
    14a4:	e28fc600 	add	ip, pc, #0, 12
    14a8:	e28cca05 	add	ip, ip, #20480	; 0x5000
    14ac:	e5bcfa78 	ldr	pc, [ip, #2680]!	; 0xa78

000014b0 <__errno@plt>:
    14b0:	e28fc600 	add	ip, pc, #0, 12
    14b4:	e28cca05 	add	ip, ip, #20480	; 0x5000
    14b8:	e5bcfa70 	ldr	pc, [ip, #2672]!	; 0xa70

000014bc <chown@plt>:
    14bc:	e28fc600 	add	ip, pc, #0, 12
    14c0:	e28cca05 	add	ip, ip, #20480	; 0x5000
    14c4:	e5bcfa68 	ldr	pc, [ip, #2664]!	; 0xa68

000014c8 <chmod@plt>:
    14c8:	e28fc600 	add	ip, pc, #0, 12
    14cc:	e28cca05 	add	ip, ip, #20480	; 0x5000
    14d0:	e5bcfa60 	ldr	pc, [ip, #2656]!	; 0xa60

000014d4 <_ZN7android7String8C1EPKc@plt>:
    14d4:	e28fc600 	add	ip, pc, #0, 12
    14d8:	e28cca05 	add	ip, ip, #20480	; 0x5000
    14dc:	e5bcfa58 	ldr	pc, [ip, #2648]!	; 0xa58

000014e0 <_ZN7android10VectorImpl3addEPKv@plt>:
    14e0:	e28fc600 	add	ip, pc, #0, 12
    14e4:	e28cca05 	add	ip, ip, #20480	; 0x5000
    14e8:	e5bcfa50 	ldr	pc, [ip, #2640]!	; 0xa50

000014ec <_ZN7android7String8D1Ev@plt>:
    14ec:	e28fc600 	add	ip, pc, #0, 12
    14f0:	e28cca05 	add	ip, ip, #20480	; 0x5000
    14f4:	e5bcfa48 	ldr	pc, [ip, #2632]!	; 0xa48

000014f8 <property_get@plt>:
    14f8:	e28fc600 	add	ip, pc, #0, 12
    14fc:	e28cca05 	add	ip, ip, #20480	; 0x5000
    1500:	e5bcfa40 	ldr	pc, [ip, #2624]!	; 0xa40

00001504 <_ZN7android7String86appendEPKc@plt>:
    1504:	e28fc600 	add	ip, pc, #0, 12
    1508:	e28cca05 	add	ip, ip, #20480	; 0x5000
    150c:	e5bcfa38 	ldr	pc, [ip, #2616]!	; 0xa38

00001510 <_ZN7android14AndroidRuntime8setArgv0EPKcb@plt>:
    1510:	e28fc600 	add	ip, pc, #0, 12
    1514:	e28cca05 	add	ip, ip, #20480	; 0x5000
    1518:	e5bcfa30 	ldr	pc, [ip, #2608]!	; 0xa30

0000151c <_ZN7android14AndroidRuntime5startEPKcRKNS_6VectorINS_7String8EEEb@plt>:
    151c:	e28fc600 	add	ip, pc, #0, 12
    1520:	e28cca05 	add	ip, ip, #20480	; 0x5000
    1524:	e5bcfa28 	ldr	pc, [ip, #2600]!	; 0xa28

00001528 <_ZN7android10VectorImpl13finish_vectorEv@plt>:
    1528:	e28fc600 	add	ip, pc, #0, 12
    152c:	e28cca05 	add	ip, ip, #20480	; 0x5000
    1530:	e5bcfa20 	ldr	pc, [ip, #2592]!	; 0xa20

00001534 <_ZN7android10VectorImplD2Ev@plt>:
    1534:	e28fc600 	add	ip, pc, #0, 12
    1538:	e28cca05 	add	ip, ip, #20480	; 0x5000
    153c:	e5bcfa18 	ldr	pc, [ip, #2584]!	; 0xa18

00001540 <_ZN7android14AndroidRuntimeD2Ev@plt>:
    1540:	e28fc600 	add	ip, pc, #0, 12
    1544:	e28cca05 	add	ip, ip, #20480	; 0x5000
    1548:	e5bcfa10 	ldr	pc, [ip, #2576]!	; 0xa10

0000154c <__stack_chk_fail@plt>:
    154c:	e28fc600 	add	ip, pc, #0, 12
    1550:	e28cca05 	add	ip, ip, #20480	; 0x5000
    1554:	e5bcfa08 	ldr	pc, [ip, #2568]!	; 0xa08

00001558 <fwrite@plt>:
    1558:	e28fc600 	add	ip, pc, #0, 12
    155c:	e28cca05 	add	ip, ip, #20480	; 0x5000
    1560:	e5bcfa00 	ldr	pc, [ip, #2560]!	; 0xa00

00001564 <__android_log_assert@plt>:
    1564:	e28fc600 	add	ip, pc, #0, 12
    1568:	e28cca05 	add	ip, ip, #20480	; 0x5000
    156c:	e5bcf9f8 	ldr	pc, [ip, #2552]!	; 0x9f8

00001570 <strerror@plt>:
    1570:	e28fc600 	add	ip, pc, #0, 12
    1574:	e28cca05 	add	ip, ip, #20480	; 0x5000
    1578:	e5bcf9f0 	ldr	pc, [ip, #2544]!	; 0x9f0

0000157c <_ZN7android14AndroidRuntimeC2EPcj@plt>:
    157c:	e28fc600 	add	ip, pc, #0, 12
    1580:	e28cca05 	add	ip, ip, #20480	; 0x5000
    1584:	e5bcf9e8 	ldr	pc, [ip, #2536]!	; 0x9e8

00001588 <_ZN7android7String85setToERKS0_@plt>:
    1588:	e28fc600 	add	ip, pc, #0, 12
    158c:	e28cca05 	add	ip, ip, #20480	; 0x5000
    1590:	e5bcf9e0 	ldr	pc, [ip, #2528]!	; 0x9e0

00001594 <_ZN7android14AndroidRuntime16toSlashClassNameEPKc@plt>:
    1594:	e28fc600 	add	ip, pc, #0, 12
    1598:	e28cca05 	add	ip, ip, #20480	; 0x5000
    159c:	e5bcf9d8 	ldr	pc, [ip, #2520]!	; 0x9d8

000015a0 <__android_log_print@plt>:
    15a0:	e28fc600 	add	ip, pc, #0, 12
    15a4:	e28cca05 	add	ip, ip, #20480	; 0x5000
    15a8:	e5bcf9d0 	ldr	pc, [ip, #2512]!	; 0x9d0

000015ac <free@plt>:
    15ac:	e28fc600 	add	ip, pc, #0, 12
    15b0:	e28cca05 	add	ip, ip, #20480	; 0x5000
    15b4:	e5bcf9c8 	ldr	pc, [ip, #2504]!	; 0x9c8

000015b8 <_ZN7android12ProcessState4selfEv@plt>:
    15b8:	e28fc600 	add	ip, pc, #0, 12
    15bc:	e28cca05 	add	ip, ip, #20480	; 0x5000
    15c0:	e5bcf9c0 	ldr	pc, [ip, #2496]!	; 0x9c0

000015c4 <_ZN7android12ProcessState15startThreadPoolEv@plt>:
    15c4:	e28fc600 	add	ip, pc, #0, 12
    15c8:	e28cca05 	add	ip, ip, #20480	; 0x5000
    15cc:	e5bcf9b8 	ldr	pc, [ip, #2488]!	; 0x9b8

000015d0 <_ZN7android14AndroidRuntime10getRuntimeEv@plt>:
    15d0:	e28fc600 	add	ip, pc, #0, 12
    15d4:	e28cca05 	add	ip, ip, #20480	; 0x5000
    15d8:	e5bcf9b0 	ldr	pc, [ip, #2480]!	; 0x9b0

000015dc <_ZN7android14AndroidRuntime8callMainERKNS_7String8EP7_jclassRKNS_6VectorIS1_EE@plt>:
    15dc:	e28fc600 	add	ip, pc, #0, 12
    15e0:	e28cca05 	add	ip, ip, #20480	; 0x5000
    15e4:	e5bcf9a8 	ldr	pc, [ip, #2472]!	; 0x9a8

000015e8 <_ZN7android14IPCThreadState4selfEv@plt>:
    15e8:	e28fc600 	add	ip, pc, #0, 12
    15ec:	e28cca05 	add	ip, ip, #20480	; 0x5000
    15f0:	e5bcf9a0 	ldr	pc, [ip, #2464]!	; 0x9a0

000015f4 <_ZN7android14IPCThreadState11stopProcessEb@plt>:
    15f4:	e28fc600 	add	ip, pc, #0, 12
    15f8:	e28cca05 	add	ip, ip, #20480	; 0x5000
    15fc:	e5bcf998 	ldr	pc, [ip, #2456]!	; 0x998

00001600 <_ZN7android8hardware14IPCThreadState4selfEv@plt>:
    1600:	e28fc600 	add	ip, pc, #0, 12
    1604:	e28cca05 	add	ip, ip, #20480	; 0x5000
    1608:	e5bcf990 	ldr	pc, [ip, #2448]!	; 0x990

0000160c <_ZN7android8hardware14IPCThreadState11stopProcessEb@plt>:
    160c:	e28fc600 	add	ip, pc, #0, 12
    1610:	e28cca05 	add	ip, ip, #20480	; 0x5000
    1614:	e5bcf988 	ldr	pc, [ip, #2440]!	; 0x988

00001618 <_ZNK7android7RefBase9decStrongEPKv@plt>:
    1618:	e28fc600 	add	ip, pc, #0, 12
    161c:	e28cca05 	add	ip, ip, #20480	; 0x5000
    1620:	e5bcf980 	ldr	pc, [ip, #2432]!	; 0x980

00001624 <__vsnprintf_chk@plt>:
    1624:	e28fc600 	add	ip, pc, #0, 12
    1628:	e28cca05 	add	ip, ip, #20480	; 0x5000
    162c:	e5bcf978 	ldr	pc, [ip, #2424]!	; 0x978

00001630 <_ZN7android7String8C1ERKS0_@plt>:
    1630:	e28fc600 	add	ip, pc, #0, 12
    1634:	e28cca05 	add	ip, ip, #20480	; 0x5000
    1638:	e5bcf970 	ldr	pc, [ip, #2416]!	; 0x970

0000163c <__aeabi_memmove@plt>:
    163c:	e28fc600 	add	ip, pc, #0, 12
    1640:	e28cca05 	add	ip, ip, #20480	; 0x5000
    1644:	e5bcf968 	ldr	pc, [ip, #2408]!	; 0x968

00001648 <_ZNSt3__111__call_onceERVmPvPFvS2_E@plt>:
    1648:	e28fc600 	add	ip, pc, #0, 12
    164c:	e28cca05 	add	ip, ip, #20480	; 0x5000
    1650:	e5bcf960 	ldr	pc, [ip, #2400]!	; 0x960

00001654 <pthread_getspecific@plt>:
    1654:	e28fc600 	add	ip, pc, #0, 12
    1658:	e28cca05 	add	ip, ip, #20480	; 0x5000
    165c:	e5bcf958 	ldr	pc, [ip, #2392]!	; 0x958

00001660 <sigemptyset64@plt>:
    1660:	e28fc600 	add	ip, pc, #0, 12
    1664:	e28cca05 	add	ip, ip, #20480	; 0x5000
    1668:	e5bcf950 	ldr	pc, [ip, #2384]!	; 0x950

0000166c <sigismember64@plt>:
    166c:	e28fc600 	add	ip, pc, #0, 12
    1670:	e28cca05 	add	ip, ip, #20480	; 0x5000
    1674:	e5bcf948 	ldr	pc, [ip, #2376]!	; 0x948

00001678 <sigaddset64@plt>:
    1678:	e28fc600 	add	ip, pc, #0, 12
    167c:	e28cca05 	add	ip, ip, #20480	; 0x5000
    1680:	e5bcf940 	ldr	pc, [ip, #2368]!	; 0x940

00001684 <pthread_setspecific@plt>:
    1684:	e28fc600 	add	ip, pc, #0, 12
    1688:	e28cca05 	add	ip, ip, #20480	; 0x5000
    168c:	e5bcf938 	ldr	pc, [ip, #2360]!	; 0x938

00001690 <abort@plt>:
    1690:	e28fc600 	add	ip, pc, #0, 12
    1694:	e28cca05 	add	ip, ip, #20480	; 0x5000
    1698:	e5bcf930 	ldr	pc, [ip, #2352]!	; 0x930

0000169c <__android_log_write@plt>:
    169c:	e28fc600 	add	ip, pc, #0, 12
    16a0:	e28cca05 	add	ip, ip, #20480	; 0x5000
    16a4:	e5bcf928 	ldr	pc, [ip, #2344]!	; 0x928

000016a8 <sigemptyset@plt>:
    16a8:	e28fc600 	add	ip, pc, #0, 12
    16ac:	e28cca05 	add	ip, ip, #20480	; 0x5000
    16b0:	e5bcf920 	ldr	pc, [ip, #2336]!	; 0x920

000016b4 <sigismember@plt>:
    16b4:	e28fc600 	add	ip, pc, #0, 12
    16b8:	e28cca05 	add	ip, ip, #20480	; 0x5000
    16bc:	e5bcf918 	ldr	pc, [ip, #2328]!	; 0x918

000016c0 <sigdelset@plt>:
    16c0:	e28fc600 	add	ip, pc, #0, 12
    16c4:	e28cca05 	add	ip, ip, #20480	; 0x5000
    16c8:	e5bcf910 	ldr	pc, [ip, #2320]!	; 0x910

000016cc <sigdelset64@plt>:
    16cc:	e28fc600 	add	ip, pc, #0, 12
    16d0:	e28cca05 	add	ip, ip, #20480	; 0x5000
    16d4:	e5bcf908 	ldr	pc, [ip, #2312]!	; 0x908

000016d8 <sigfillset64@plt>:
    16d8:	e28fc600 	add	ip, pc, #0, 12
    16dc:	e28cca05 	add	ip, ip, #20480	; 0x5000
    16e0:	e5bcf900 	ldr	pc, [ip, #2304]!	; 0x900

000016e4 <pthread_key_create@plt>:
    16e4:	e28fc600 	add	ip, pc, #0, 12
    16e8:	e28cca05 	add	ip, ip, #20480	; 0x5000
    16ec:	e5bcf8f8 	ldr	pc, [ip, #2296]!	; 0x8f8

000016f0 <dlsym@plt>:
    16f0:	e28fc600 	add	ip, pc, #0, 12
    16f4:	e28cca05 	add	ip, ip, #20480	; 0x5000
    16f8:	e5bcf8f0 	ldr	pc, [ip, #2288]!	; 0x8f0

000016fc <fprintf@plt>:
    16fc:	e28fc600 	add	ip, pc, #0, 12
    1700:	e28cca05 	add	ip, ip, #20480	; 0x5000
    1704:	e5bcf8e8 	ldr	pc, [ip, #2280]!	; 0x8e8

00001708 <fflush@plt>:
    1708:	e28fc600 	add	ip, pc, #0, 12
    170c:	e28cca05 	add	ip, ip, #20480	; 0x5000
    1710:	e5bcf8e0 	ldr	pc, [ip, #2272]!	; 0x8e0

00001714 <__aeabi_memclr@plt>:
    1714:	e28fc600 	add	ip, pc, #0, 12
    1718:	e28cca05 	add	ip, ip, #20480	; 0x5000
    171c:	e5bcf8d8 	ldr	pc, [ip, #2264]!	; 0x8d8

00001720 <dladdr@plt>:
    1720:	e28fc600 	add	ip, pc, #0, 12
    1724:	e28cca05 	add	ip, ip, #20480	; 0x5000
    1728:	e5bcf8d0 	ldr	pc, [ip, #2256]!	; 0x8d0

0000172c <dl_iterate_phdr@plt>:
    172c:	e28fc600 	add	ip, pc, #0, 12
    1730:	e28cca05 	add	ip, ip, #20480	; 0x5000
    1734:	e5bcf8c8 	ldr	pc, [ip, #2248]!	; 0x8c8

Disassembly of section .text:

00001738 <sigaction-0xd9c>:
    1738:	f0004668 			; <UNDEFINED> instruction: 0xf0004668
    173c:	0000b801 	andeq	fp, r0, r1, lsl #16
    1740:	b084b580 	addlt	fp, r4, r0, lsl #11
    1744:	44794909 	ldrbtmi	r4, [r9], #-2313	; 0x909
    1748:	91026809 	tstls	r2, r9, lsl #16
    174c:	44794908 	ldrbtmi	r4, [r9], #-2312	; 0x908
    1750:	91016809 	tstls	r1, r9, lsl #16
    1754:	44794907 	ldrbtmi	r4, [r9], #-2311	; 0x907
    1758:	91036809 	tstls	r3, r9, lsl #16
    175c:	44794906 	ldrbtmi	r4, [r9], #-2310	; 0x906
    1760:	ab01680a 	blge	5b790 <EnsureFrontOfChain+0x58b3c>
    1764:	f0032100 			; <UNDEFINED> instruction: 0xf0032100
    1768:	bf00fa33 	svclt	0x0000fa33
    176c:	00005762 	andeq	r5, r0, r2, ror #14
    1770:	0000575e 	andeq	r5, r0, lr, asr r7
    1774:	0000575a 	andeq	r5, r0, sl, asr r7
    1778:	00005756 	andeq	r5, r0, r6, asr r7
    177c:	4700b100 	strmi	fp, [r0, -r0, lsl #2]
    1780:	00004770 	andeq	r4, r0, r0, ror r7
    1784:	46014a04 	strmi	r4, [r1], -r4, lsl #20
    1788:	44784802 	ldrbtmi	r4, [r8], #-2050	; 0x802
    178c:	f003447a 			; <UNDEFINED> instruction: 0xf003447a
    1790:	bf00ba27 	svclt	0x0000ba27
    1794:	ffffffef 			; <UNDEFINED> instruction: 0xffffffef
    1798:	00005870 	andeq	r5, r0, r0, ror r8
    179c:	447b4b01 	ldrbtmi	r4, [fp], #-2817	; 0xb01
    17a0:	ba26f003 	blt	9bd7b4 <EnsureFrontOfChain+0x9bab60>
    17a4:	0000585e 	andeq	r5, r0, lr, asr r8
    17a8:	4ff0e92d 	svcmi	0x00f0e92d
    17ac:	5d84f5ad 	cfstr32pl	mvfx15, [r4, #692]	; 0x2b4
    17b0:	f8dfb085 			; <UNDEFINED> instruction: 0xf8dfb085
    17b4:	460564b4 			; <UNDEFINED> instruction: 0x460564b4
    17b8:	0918f10d 	ldmdbeq	r8, {r0, r2, r3, r8, ip, sp, lr, pc}
    17bc:	447e468a 	ldrbtmi	r4, [lr], #-1674	; 0x68a
    17c0:	68006830 	stmdavs	r0, {r4, r5, fp, sp, lr}
    17c4:	0000f8c9 	andeq	pc, r0, r9, asr #17
    17c8:	f0032010 			; <UNDEFINED> instruction: 0xf0032010
    17cc:	f8dffa19 			; <UNDEFINED> instruction: 0xf8dffa19
    17d0:	4604149c 			; <UNDEFINED> instruction: 0x4604149c
    17d4:	220b2011 	andcs	r2, fp, #17
    17d8:	90239425 	eorls	r9, r3, r5, lsr #8
    17dc:	9024200b 	eorls	r2, r4, fp
    17e0:	44794620 	ldrbtmi	r4, [r9], #-1568	; 0x620
    17e4:	fa14f003 	blx	53d7f8 <EnsureFrontOfChain+0x53aba4>
    17e8:	efc02000 	svc	0x00c02000
    17ec:	72e00010 	rscvc	r0, r0, #16
    17f0:	4611aa10 			; <UNDEFINED> instruction: 0x4611aa10
    17f4:	070df941 	streq	pc, [sp, -r1, asr #18]
    17f8:	ac206008 	stcge	0, cr6, [r0], #-32	; 0xffffffe0
    17fc:	4620a923 	strtmi	sl, [r0], -r3, lsr #18
    1800:	fa0ef003 	blx	3bd814 <EnsureFrontOfChain+0x3babc0>
    1804:	0040f89d 	umaaleq	pc, r0, sp, r8	; <UNPREDICTABLE>
    1808:	d00207c0 	andle	r0, r2, r0, asr #15
    180c:	f0039812 			; <UNDEFINED> instruction: 0xf0039812
    1810:	f89dfa0f 			; <UNDEFINED> instruction: 0xf89dfa0f
    1814:	07c0008c 	strbeq	r0, [r0, ip, lsl #1]
    1818:	9825d002 	stmdals	r5!, {r1, ip, lr, pc}
    181c:	fa08f003 	blx	23d830 <EnsureFrontOfChain+0x23abdc>
    1820:	7080f89d 	umullvc	pc, r0, sp, r8	; <UNPREDICTABLE>
    1824:	0001f044 	andeq	pc, r1, r4, asr #32
    1828:	f8df9c22 			; <UNDEFINED> instruction: 0xf8df9c22
    182c:	f0171444 			; <UNDEFINED> instruction: 0xf0171444
    1830:	44790f01 	ldrbtmi	r0, [r9], #-3841	; 0xf01
    1834:	4604bf08 	strmi	fp, [r4], -r8, lsl #30
    1838:	46202207 	strtmi	r2, [r0], -r7, lsl #4
    183c:	fa00f003 	blx	3d850 <EnsureFrontOfChain+0x3abfc>
    1840:	f0002800 			; <UNDEFINED> instruction: 0xf0002800
    1844:	f8df8195 			; <UNDEFINED> instruction: 0xf8df8195
    1848:	4620142c 	strtmi	r1, [r0], -ip, lsr #8
    184c:	44792207 	ldrbtmi	r2, [r9], #-519	; 0x207
    1850:	f9f6f003 			; <UNDEFINED> instruction: 0xf9f6f003
    1854:	f0002800 			; <UNDEFINED> instruction: 0xf0002800
    1858:	f1a5818b 			; <UNDEFINED> instruction: 0xf1a5818b
    185c:	f8da0b01 			; <UNDEFINED> instruction: 0xf8da0b01
    1860:	f85a7000 			; <UNDEFINED> instruction: 0xf85a7000
    1864:	4620402b 	strtmi	r4, [r0], -fp, lsr #32
    1868:	f9f2f003 			; <UNDEFINED> instruction: 0xf9f2f003
    186c:	0101f1c7 	smlabteq	r1, r7, r1, pc	; <UNPREDICTABLE>
    1870:	180a4421 	stmdane	sl, {r0, r5, sl, lr}
    1874:	4639a810 			; <UNDEFINED> instruction: 0x4639a810
    1878:	fa4ef000 	blx	13bd880 <EnsureFrontOfChain+0x13bac2c>
    187c:	db342d02 	blle	d0cc8c <EnsureFrontOfChain+0xd0a038>
    1880:	27012400 	strcs	r2, [r1, -r0, lsl #8]
    1884:	0940f10d 	stmdbeq	r0, {r0, r2, r3, r8, ip, sp, lr, pc}^
    1888:	6027f85a 	eorvs	pc, r7, sl, asr r8	; <UNPREDICTABLE>
    188c:	d11d07e0 	tstle	sp, r0, ror #15
    1890:	8480f8df 	strhi	pc, [r0], #2271	; 0x8df
    1894:	44f82500 	ldrbtmi	r2, [r8], #1280	; 0x500
    1898:	1b04f858 	blne	13fa00 <EnsureFrontOfChain+0x13cdac>
    189c:	f0034630 			; <UNDEFINED> instruction: 0xf0034630
    18a0:	2800f9df 	stmdacs	r0, {r0, r1, r2, r3, r4, r6, r7, r8, fp, ip, sp, lr, pc}
    18a4:	2401bf08 	strcs	fp, [r1], #-3848	; 0xf08
    18a8:	2d023501 	cfstr32cs	mvfx3, [r2, #-4]
    18ac:	7830d1f4 	ldmdavc	r0!, {r2, r4, r5, r6, r7, r8, ip, lr, pc}
    18b0:	d11c282d 	tstle	ip, sp, lsr #16
    18b4:	282d7870 	stmdacs	sp!, {r4, r5, r6, fp, ip, sp, lr}
    18b8:	78b0bf08 	ldmvc	r0!, {r3, r8, r9, sl, fp, ip, sp, pc}
    18bc:	2800bf08 	stmdacs	r0, {r3, r8, r9, sl, fp, ip, sp, pc}
    18c0:	4630d016 			; <UNDEFINED> instruction: 0x4630d016
    18c4:	f9d4f003 			; <UNDEFINED> instruction: 0xf9d4f003
    18c8:	e0044601 	and	r4, r4, r1, lsl #12
    18cc:	f0034630 			; <UNDEFINED> instruction: 0xf0034630
    18d0:	4601f9cf 	strmi	pc, [r1], -pc, asr #19
    18d4:	46482400 	strbmi	r2, [r8], -r0, lsl #8
    18d8:	f0032200 			; <UNDEFINED> instruction: 0xf0032200
    18dc:	1c78f9d1 	ldclne	9, cr15, [r8], #-836	; 0xfffffcbc
    18e0:	4607455f 			; <UNDEFINED> instruction: 0x4607455f
    18e4:	1e47dbd0 	vmovne.8	d23[2], sp
    18e8:	2700e002 	strcs	lr, [r0, -r2]
    18ec:	3f01e000 	svccc	0x0001e000
    18f0:	f003a80f 			; <UNDEFINED> instruction: 0xf003a80f
    18f4:	a80ef9cd 	stmdage	lr, {r0, r2, r3, r6, r7, r8, fp, ip, sp, lr, pc}
    18f8:	f9caf003 			; <UNDEFINED> instruction: 0xf9caf003
    18fc:	0901f107 	stmdbeq	r1, {r0, r1, r2, r8, ip, sp, lr, pc}
    1900:	da4245d9 	ble	109306c <EnsureFrontOfChain+0x1090418>
    1904:	4dde4edc 	ldclmi	14, cr4, [lr, #880]	; 0x370
    1908:	4fdc1cb8 	svcmi	0x00dc1cb8
    190c:	91032100 	mrsls	r2, (UNDEF: 19)
    1910:	ac0f2100 	stfges	f2, [pc], {-0}
    1914:	21009104 	tstcs	r0, r4, lsl #2
    1918:	447e9105 	ldrbtmi	r9, [lr], #-261	; 0x105
    191c:	447d447f 	ldrbtmi	r4, [sp], #-1151	; 0x47f
    1920:	46314681 	ldrtmi	r4, [r1], -r1, lsl #13
    1924:	8029f85a 	eorhi	pc, r9, sl, asr r8	; <UNPREDICTABLE>
    1928:	f0034640 			; <UNDEFINED> instruction: 0xf0034640
    192c:	b1c8f999 			; <UNDEFINED> instruction: 0xb1c8f999
    1930:	46394640 	ldrtmi	r4, [r9], -r0, asr #12
    1934:	f994f003 			; <UNDEFINED> instruction: 0xf994f003
    1938:	4640b1e8 	strbmi	fp, [r0], -r8, ror #3
    193c:	f0034629 			; <UNDEFINED> instruction: 0xf0034629
    1940:	b1d8f98f 	bicslt	pc, r8, pc, lsl #19
    1944:	13c8f8df 	bicne	pc, r8, #14614528	; 0xdf0000
    1948:	220c4640 	andcs	r4, ip, #64, 12	; 0x4000000
    194c:	f0034479 			; <UNDEFINED> instruction: 0xf0034479
    1950:	2800f977 	stmdacs	r0, {r0, r1, r2, r4, r5, r6, r8, fp, ip, sp, lr, pc}
    1954:	811df040 	tsthi	sp, r0, asr #32
    1958:	010cf108 	tsteq	ip, r8, lsl #2
    195c:	f0034620 			; <UNDEFINED> instruction: 0xf0034620
    1960:	e00df99f 	mul	sp, pc, r9	; <UNPREDICTABLE>
    1964:	13a4f8df 			; <UNDEFINED> instruction: 0x13a4f8df
    1968:	44794620 	ldrbtmi	r4, [r9], #-1568	; 0x620
    196c:	f998f003 			; <UNDEFINED> instruction: 0xf998f003
    1970:	90052001 	andls	r2, r5, r1
    1974:	2001e004 	andcs	lr, r1, r4
    1978:	e0019004 	and	r9, r1, r4
    197c:	90032001 	andls	r2, r3, r1
    1980:	0001f109 	andeq	pc, r1, r9, lsl #2
    1984:	dbcb45d9 	blle	ff2d30f0 <EnsureFrontOfChain+0xff2d049c>
    1988:	2000e005 	andcs	lr, r0, r5
    198c:	20009005 	andcs	r9, r0, r5
    1990:	20009004 	andcs	r9, r0, r4
    1994:	a8099003 	stmdage	r9, {r0, r1, ip, pc}
    1998:	22002104 	andcs	r2, r0, #4, 2
    199c:	f988f003 			; <UNDEFINED> instruction: 0xf988f003
    19a0:	82e4f8df 	rschi	pc, r4, #14614528	; 0xdf0000
    19a4:	f10844f8 			; <UNDEFINED> instruction: 0xf10844f8
    19a8:	90090008 	andls	r0, r9, r8
    19ac:	f003a80e 			; <UNDEFINED> instruction: 0xf003a80e
    19b0:	b138f987 	teqlt	r8, r7, lsl #19
    19b4:	f10a9803 			; <UNDEFINED> instruction: 0xf10a9803
    19b8:	07c00504 	strbeq	r0, [r0, r4, lsl #10]
    19bc:	49b4d177 	ldmibmi	r4!, {r0, r1, r2, r4, r5, r6, r8, ip, lr, pc}
    19c0:	e0764479 	rsbs	r4, r6, r9, ror r4
    19c4:	447848b3 	ldrbtmi	r4, [r8], #-2227	; 0x8b3
    19c8:	f982f003 			; <UNDEFINED> instruction: 0xf982f003
    19cc:	f0002800 			; <UNDEFINED> instruction: 0xf0002800
    19d0:	49b18104 	ldmibmi	r1!, {r2, r8, pc}
    19d4:	e9cd4479 	stmib	sp, {r0, r3, r4, r5, r6, sl, lr}^
    19d8:	a8230100 	stmdage	r3!, {r8}
    19dc:	fae8f000 	blx	ffa3d9e4 <EnsureFrontOfChain+0xffa3ad90>
    19e0:	5f80f5b0 	svcpl	0x0080f5b0
    19e4:	8101f080 	smlabbhi	r1, r0, r0, pc	; <UNPREDICTABLE>
    19e8:	f240a823 	vadd.i8	d26, d0, d19
    19ec:	f00311c9 			; <UNDEFINED> instruction: 0xf00311c9
    19f0:	f1b0f977 			; <UNDEFINED> instruction: 0xf1b0f977
    19f4:	dc053fff 	stcle	15, cr3, [r5], {255}	; 0xff
    19f8:	f97af003 			; <UNDEFINED> instruction: 0xf97af003
    19fc:	28116800 	ldmdacs	r1, {fp, sp, lr}
    1a00:	8125f040 	msrhi	CPSR_sc, r0, asr #32
    1a04:	2100a823 	tstcs	r0, r3, lsr #16
    1a08:	f0032200 			; <UNDEFINED> instruction: 0xf0032200
    1a0c:	f1b0f979 			; <UNDEFINED> instruction: 0xf1b0f979
    1a10:	f3403fff 			; <UNDEFINED> instruction: 0xf3403fff
    1a14:	a82380f8 	stmdage	r3!, {r3, r4, r5, r6, r7, pc}
    1a18:	11c9f240 	bicne	pc, r9, r0, asr #4
    1a1c:	f978f003 			; <UNDEFINED> instruction: 0xf978f003
    1a20:	3ffff1b0 	svccc	0x00fff1b0
    1a24:	80fdf340 	rscshi	pc, sp, r0, asr #6
    1a28:	07c09804 	strbeq	r9, [r0, r4, lsl #16]
    1a2c:	499ed00c 	ldmibmi	lr, {r2, r3, ip, lr, pc}
    1a30:	4620ac23 	strtmi	sl, [r0], -r3, lsr #24
    1a34:	f0034479 			; <UNDEFINED> instruction: 0xf0034479
    1a38:	a809f973 	stmdage	r9, {r0, r1, r4, r5, r6, r8, fp, ip, sp, lr, pc}
    1a3c:	f0034621 			; <UNDEFINED> instruction: 0xf0034621
    1a40:	4620f977 			; <UNDEFINED> instruction: 0x4620f977
    1a44:	f97cf003 			; <UNDEFINED> instruction: 0xf97cf003
    1a48:	a9234c98 	stmdbge	r3!, {r3, r4, r7, sl, fp, lr}
    1a4c:	447c2200 	ldrbtmi	r2, [ip], #-512	; 0x200
    1a50:	f0034620 			; <UNDEFINED> instruction: 0xf0034620
    1a54:	2800f97d 	stmdacs	r0, {r0, r2, r3, r4, r5, r6, r8, fp, ip, sp, lr, pc}
    1a58:	80f1f000 	rscshi	pc, r1, r0
    1a5c:	ac084994 	stcge	9, cr4, [r8], {148}	; 0x94
    1a60:	44794620 	ldrbtmi	r4, [r9], #-1568	; 0x620
    1a64:	f95cf003 			; <UNDEFINED> instruction: 0xf95cf003
    1a68:	f003a923 			; <UNDEFINED> instruction: 0xf003a923
    1a6c:	a809f979 	stmdage	r9, {r0, r3, r4, r5, r6, r8, fp, ip, sp, lr, pc}
    1a70:	f0034621 			; <UNDEFINED> instruction: 0xf0034621
    1a74:	45cbf95d 	strbmi	pc, [fp, #2397]	; 0x95d	; <UNPREDICTABLE>
    1a78:	eb0add14 	bl	2b8ed0 <EnsureFrontOfChain+0x2b627c>
    1a7c:	ac070089 	stcge	0, cr0, [r7], {137}	; 0x89
    1a80:	1d07ad09 	stcne	13, cr10, [r7, #-36]	; 0xffffffdc
    1a84:	1b04f857 	blne	13fbe8 <EnsureFrontOfChain+0x13cf94>
    1a88:	f0034620 			; <UNDEFINED> instruction: 0xf0034620
    1a8c:	4628f949 	strtmi	pc, [r8], -r9, asr #18
    1a90:	f0034621 			; <UNDEFINED> instruction: 0xf0034621
    1a94:	4620f94d 	strtmi	pc, [r0], -sp, asr #18
    1a98:	f952f003 			; <UNDEFINED> instruction: 0xf952f003
    1a9c:	0901f109 	stmdbeq	r1, {r0, r3, r8, ip, sp, lr, pc}
    1aa0:	d1ef45d9 	ldrdle	r4, [pc, #89]	; 1b01 <dl_iterate_phdr@plt+0x3d5>
    1aa4:	f003a808 			; <UNDEFINED> instruction: 0xf003a808
    1aa8:	9f05f94b 	svcls	0x0005f94b
    1aac:	4977e015 	ldmdbmi	r7!, {r0, r2, r4, sp, lr, pc}^
    1ab0:	a8234479 	stmdage	r3!, {r0, r3, r4, r5, r6, sl, lr}
    1ab4:	f934f003 			; <UNDEFINED> instruction: 0xf934f003
    1ab8:	a8099f05 	stmdage	r9, {r0, r2, r8, r9, sl, fp, ip, pc}
    1abc:	4621ac23 	strtmi	sl, [r1], -r3, lsr #24
    1ac0:	f936f003 			; <UNDEFINED> instruction: 0xf936f003
    1ac4:	f0034620 			; <UNDEFINED> instruction: 0xf0034620
    1ac8:	a810f93b 	ldmdage	r0, {r0, r1, r3, r4, r5, r8, fp, ip, sp, lr, pc}
    1acc:	0209ebab 	andeq	lr, r9, #175104	; 0x2ac00
    1ad0:	0389eb05 	orreq	lr, r9, #5120	; 0x1400
    1ad4:	f000a90e 			; <UNDEFINED> instruction: 0xf000a90e
    1ad8:	a80ff93d 	stmdage	pc, {r0, r2, r3, r4, r5, r8, fp, ip, sp, lr, pc}	; <UNPREDICTABLE>
    1adc:	f8f0f003 			; <UNDEFINED> instruction: 0xf8f0f003
    1ae0:	2800ae06 	stmdacs	r0, {r1, r2, r9, sl, fp, sp, pc}
    1ae4:	4e8846b1 	mcrmi	6, 4, r4, cr8, cr1, {5}
    1ae8:	d004447e 	andle	r4, r4, lr, ror r4
    1aec:	a810990f 	ldmdage	r0, {r0, r1, r2, r3, r8, fp, ip, pc}
    1af0:	f0032201 			; <UNDEFINED> instruction: 0xf0032201
    1af4:	07f8f93d 			; <UNDEFINED> instruction: 0x07f8f93d
    1af8:	980ed108 	stmdals	lr, {r3, r8, ip, lr, pc}
    1afc:	d0592800 	subsle	r2, r9, r0, lsl #16
    1b00:	a810496d 	ldmdage	r0, {r0, r2, r3, r5, r6, r8, fp, lr}
    1b04:	2300aa09 	movwcs	sl, #2569	; 0xa09
    1b08:	e0084479 	and	r4, r8, r9, ror r4
    1b0c:	21012001 	tstcs	r1, r1
    1b10:	fdc8f000 	stc2l	0, cr15, [r8]
    1b14:	a8104967 	ldmdage	r0, {r0, r1, r2, r5, r6, r8, fp, lr}
    1b18:	2301aa09 	movwcs	sl, #6665	; 0x1a09
    1b1c:	f0034479 			; <UNDEFINED> instruction: 0xf0034479
    1b20:	f108f92f 			; <UNDEFINED> instruction: 0xf108f92f
    1b24:	95090508 	strls	r0, [r9, #-1288]	; 0x508
    1b28:	4620ac09 	strtmi	sl, [r0], -r9, lsl #24
    1b2c:	f930f003 			; <UNDEFINED> instruction: 0xf930f003
    1b30:	f0034620 			; <UNDEFINED> instruction: 0xf0034620
    1b34:	a80ef935 	stmdage	lr, {r0, r2, r4, r5, r8, fp, ip, sp, lr, pc}
    1b38:	f902f003 			; <UNDEFINED> instruction: 0xf902f003
    1b3c:	f003a80f 			; <UNDEFINED> instruction: 0xf003a80f
    1b40:	485ef8ff 	ldmdami	lr, {r0, r1, r2, r3, r4, r5, r6, r7, fp, ip, sp, lr, pc}^
    1b44:	4478951a 	ldrbtmi	r9, [r8], #-1306	; 0x51a
    1b48:	90103008 	andsls	r3, r0, r8
    1b4c:	f105ad10 			; <UNDEFINED> instruction: 0xf105ad10
    1b50:	46200428 	strtmi	r0, [r0], -r8, lsr #8
    1b54:	f91cf003 			; <UNDEFINED> instruction: 0xf91cf003
    1b58:	f0034620 			; <UNDEFINED> instruction: 0xf0034620
    1b5c:	f105f921 			; <UNDEFINED> instruction: 0xf105f921
    1b60:	f0030024 			; <UNDEFINED> instruction: 0xf0030024
    1b64:	4628f8ed 	strtmi	pc, [r8], -sp, ror #17
    1b68:	f922f003 			; <UNDEFINED> instruction: 0xf922f003
    1b6c:	7080f89d 	umullvc	pc, r0, sp, r8	; <UNPREDICTABLE>
    1b70:	d00207f8 	strdle	r0, [r2], -r8
    1b74:	f0039822 			; <UNDEFINED> instruction: 0xf0039822
    1b78:	6830f85b 	ldmdavs	r0!, {r0, r1, r3, r4, r6, fp, ip, sp, lr, pc}
    1b7c:	f8d96800 			; <UNDEFINED> instruction: 0xf8d96800
    1b80:	1a401000 	bne	1005b88 <EnsureFrontOfChain+0x1002f34>
    1b84:	2000d114 	andcs	sp, r0, r4, lsl r1
    1b88:	5d84f50d 	cfstr32pl	mvfx15, [r4, #52]	; 0x34
    1b8c:	e8bdb005 	pop	{r0, r2, ip, sp, pc}
    1b90:	493c8ff0 	ldmdbmi	ip!, {r4, r5, r6, r7, r8, r9, sl, fp, pc}
    1b94:	22024640 	andcs	r4, r2, #64, 12	; 0x4000000
    1b98:	f0034479 			; <UNDEFINED> instruction: 0xf0034479
    1b9c:	b120f851 	msrlt	CPSR_, r1, asr r8
    1ba0:	4641a80e 	strbmi	sl, [r1], -lr, lsl #16
    1ba4:	f87cf003 			; <UNDEFINED> instruction: 0xf87cf003
    1ba8:	f1a9e6f5 			; <UNDEFINED> instruction: 0xf1a9e6f5
    1bac:	e6f20901 	ldrbt	r0, [r2], r1, lsl #18
    1bb0:	f906f003 			; <UNDEFINED> instruction: 0xf906f003
    1bb4:	212b4842 	teqcs	fp, r2, asr #16
    1bb8:	44782201 	ldrbtmi	r2, [r8], #-513	; 0x201
    1bbc:	68036800 	stmdavs	r3, {fp, sp, lr}
    1bc0:	44784840 	ldrbtmi	r4, [r8], #-2112	; 0x840
    1bc4:	f904f003 			; <UNDEFINED> instruction: 0xf904f003
    1bc8:	f8f8f000 			; <UNDEFINED> instruction: 0xf8f8f000
    1bcc:	4a3f493e 	bmi	fd40cc <EnsureFrontOfChain+0xfd1478>
    1bd0:	44792000 	ldrbtmi	r2, [r9], #-0
    1bd4:	f003447a 			; <UNDEFINED> instruction: 0xf003447a
    1bd8:	4848f903 	stmdami	r8, {r0, r1, r8, fp, ip, sp, lr, pc}^
    1bdc:	4a494948 	bmi	1254104 <EnsureFrontOfChain+0x12514b0>
    1be0:	44794478 	ldrbtmi	r4, [r9], #-1144	; 0x478
    1be4:	f003447a 			; <UNDEFINED> instruction: 0xf003447a
    1be8:	f003f8fb 			; <UNDEFINED> instruction: 0xf003f8fb
    1bec:	6800f881 	stmdavs	r0, {r0, r7, fp, ip, sp, lr, pc}
    1bf0:	f8fef003 			; <UNDEFINED> instruction: 0xf8fef003
    1bf4:	4a40493f 	bmi	10140f8 <EnsureFrontOfChain+0x10114a4>
    1bf8:	483d4603 	ldmdami	sp!, {r0, r1, r9, sl, lr}
    1bfc:	44794478 	ldrbtmi	r4, [r9], #-1144	; 0x478
    1c00:	f003447a 			; <UNDEFINED> instruction: 0xf003447a
    1c04:	f003f8ed 			; <UNDEFINED> instruction: 0xf003f8ed
    1c08:	6800f873 	stmdavs	r0, {r0, r1, r4, r5, r6, fp, ip, sp, lr, pc}
    1c0c:	f8f0f003 			; <UNDEFINED> instruction: 0xf8f0f003
    1c10:	4a364935 	bmi	d940ec <EnsureFrontOfChain+0xd91498>
    1c14:	48334603 	ldmdami	r3!, {r0, r1, r9, sl, lr}
    1c18:	44794478 	ldrbtmi	r4, [r9], #-1144	; 0x478
    1c1c:	f003447a 			; <UNDEFINED> instruction: 0xf003447a
    1c20:	f003f8df 			; <UNDEFINED> instruction: 0xf003f8df
    1c24:	6800f865 	stmdavs	r0, {r0, r2, r5, r6, fp, ip, sp, lr, pc}
    1c28:	f8e2f003 			; <UNDEFINED> instruction: 0xf8e2f003
    1c2c:	4a2c492b 	bmi	b140e0 <EnsureFrontOfChain+0xb1148c>
    1c30:	48294603 	stmdami	r9!, {r0, r1, r9, sl, lr}
    1c34:	44794478 	ldrbtmi	r4, [r9], #-1144	; 0x478
    1c38:	f003447a 			; <UNDEFINED> instruction: 0xf003447a
    1c3c:	4924f8d1 	stmdbmi	r4!, {r0, r4, r6, r7, fp, ip, sp, lr, pc}
    1c40:	20004a24 	andcs	r4, r0, r4, lsr #20
    1c44:	44794623 	ldrbtmi	r4, [r9], #-1571	; 0x623
    1c48:	f003447a 			; <UNDEFINED> instruction: 0xf003447a
    1c4c:	f003f8c9 			; <UNDEFINED> instruction: 0xf003f8c9
    1c50:	9000f8cf 	andls	pc, r0, pc, asr #17
    1c54:	49124811 	ldmdbmi	r2, {r0, r4, fp, lr}
    1c58:	ab234a12 	blge	8d44a8 <EnsureFrontOfChain+0x8d1854>
    1c5c:	44794478 	ldrbtmi	r4, [r9], #-1144	; 0x478
    1c60:	f003447a 			; <UNDEFINED> instruction: 0xf003447a
    1c64:	bf00f8bd 	svclt	0x0000f8bd
    1c68:	000056fa 	strdeq	r5, [r0], -sl
    1c6c:	00003b5a 	andeq	r3, r0, sl, asr fp
    1c70:	00003b16 	andeq	r3, r0, r6, lsl fp
    1c74:	00003b02 	andeq	r3, r0, r2, lsl #22
    1c78:	00003a4d 	andeq	r3, r0, sp, asr #20
    1c7c:	00003a54 	andeq	r3, r0, r4, asr sl
    1c80:	00003a68 	andeq	r3, r0, r8, ror #20
    1c84:	00003809 	andeq	r3, r0, r9, lsl #16
    1c88:	00005334 	andeq	r5, r0, r4, lsr r3
    1c8c:	000038f4 	strdeq	r3, [r0], -r4
    1c90:	000039f0 	strdeq	r3, [r0], -r0
    1c94:	00003b19 	andeq	r3, r0, r9, lsl fp
    1c98:	000041ab 	andeq	r4, r0, fp, lsr #3
    1c9c:	0000392b 	andeq	r3, r0, fp, lsr #18
    1ca0:	0000376b 	andeq	r3, r0, fp, ror #14
    1ca4:	00003947 	andeq	r3, r0, r7, asr #18
    1ca8:	00003981 	andeq	r3, r0, r1, lsl #19
    1cac:	00004118 	andeq	r4, r0, r8, lsl r1
    1cb0:	000039ab 	andeq	r3, r0, fp, lsr #19
    1cb4:	000038fd 	strdeq	r3, [r0], -sp
    1cb8:	00003934 	andeq	r3, r0, r4, lsr r9
    1cbc:	00005172 	andeq	r5, r0, r2, ror r1
    1cc0:	00005302 	andeq	r5, r0, r2, lsl #6
    1cc4:	0000389e 	muleq	r0, lr, r8
    1cc8:	000037f7 	strdeq	r3, [r0], -r7
    1ccc:	000038b8 			; <UNDEFINED> instruction: 0x000038b8
    1cd0:	00003783 	andeq	r3, r0, r3, lsl #15
    1cd4:	00003789 	andeq	r3, r0, r9, lsl #15
    1cd8:	00003994 	muleq	r0, r4, r9
    1cdc:	00003793 	muleq	r0, r3, r7
    1ce0:	000039c8 	andeq	r3, r0, r8, asr #19
    1ce4:	000039b0 			; <UNDEFINED> instruction: 0x000039b0
    1ce8:	000037af 	andeq	r3, r0, pc, lsr #15
    1cec:	000039b9 			; <UNDEFINED> instruction: 0x000039b9
    1cf0:	0000393f 	andeq	r3, r0, pc, lsr r9
    1cf4:	000037cb 	andeq	r3, r0, fp, asr #15
    1cf8:	00003962 	andeq	r3, r0, r2, ror #18
    1cfc:	0000390c 	andeq	r3, r0, ip, lsl #18
    1d00:	000037e7 	andeq	r3, r0, r7, ror #15
    1d04:	0000391c 	andeq	r3, r0, ip, lsl r9
    1d08:	000053d0 	ldrdeq	r5, [r0], -r0
    1d0c:	000041f5 	strdeq	r4, [r0], -r5
    1d10:	00003a48 	andeq	r3, r0, r8, asr #20
    1d14:	0000541a 	andeq	r5, r0, sl, lsl r4
    1d18:	4604b5b0 			; <UNDEFINED> instruction: 0x4604b5b0
    1d1c:	f870f003 			; <UNDEFINED> instruction: 0xf870f003
    1d20:	4478480a 	ldrbtmi	r4, [r8], #-2058	; 0x80a
    1d24:	60203008 	eorvs	r3, r0, r8
    1d28:	0024f104 	eoreq	pc, r4, r4, lsl #2
    1d2c:	ffb0f002 			; <UNDEFINED> instruction: 0xffb0f002
    1d30:	0028f104 	eoreq	pc, r8, r4, lsl #2
    1d34:	22002104 	andcs	r2, r0, #4, 2
    1d38:	f0022500 			; <UNDEFINED> instruction: 0xf0022500
    1d3c:	4804ffb9 	stmdami	r4, {r0, r3, r4, r5, r7, r8, r9, sl, fp, ip, sp, lr, pc}
    1d40:	447863e5 	ldrbtmi	r6, [r8], #-997	; 0x3e5
    1d44:	62a03008 	adcvs	r3, r0, #8
    1d48:	bdb04620 	ldclt	6, cr4, [r0, #128]!	; 0x80
    1d4c:	00004f96 	muleq	r0, r6, pc	; <UNPREDICTABLE>
    1d50:	00004f96 	muleq	r0, r6, pc	; <UNPREDICTABLE>
    1d54:	43f0e92d 	mvnsmi	lr, #737280	; 0xb4000
    1d58:	f8dfb083 			; <UNDEFINED> instruction: 0xf8dfb083
    1d5c:	4606805c 			; <UNDEFINED> instruction: 0x4606805c
    1d60:	4691461c 			; <UNDEFINED> instruction: 0x4691461c
    1d64:	f8d844f8 			; <UNDEFINED> instruction: 0xf8d844f8
    1d68:	68000000 	stmdavs	r0, {}	; <UNPREDICTABLE>
    1d6c:	f1069002 			; <UNDEFINED> instruction: 0xf1069002
    1d70:	f0030024 			; <UNDEFINED> instruction: 0xf0030024
    1d74:	f1b9f84d 			; <UNDEFINED> instruction: 0xf1b9f84d
    1d78:	db110f01 	blle	445984 <EnsureFrontOfChain+0x442d30>
    1d7c:	25003628 	strcs	r3, [r0, #-1576]	; 0x628
    1d80:	f854af01 			; <UNDEFINED> instruction: 0xf854af01
    1d84:	46381b04 	ldrtmi	r1, [r8], -r4, lsl #22
    1d88:	ffcaf002 			; <UNDEFINED> instruction: 0xffcaf002
    1d8c:	46394630 			; <UNDEFINED> instruction: 0x46394630
    1d90:	ffcef002 			; <UNDEFINED> instruction: 0xffcef002
    1d94:	f0024638 			; <UNDEFINED> instruction: 0xf0024638
    1d98:	3501ffd3 	strcc	pc, [r1, #-4051]	; 0xfd3
    1d9c:	d1f0454d 	mvnsle	r4, sp, asr #10
    1da0:	0000f8d8 	ldrdeq	pc, [r0], -r8
    1da4:	99026800 	stmdbls	r2, {fp, sp, lr}
    1da8:	d1021a40 	tstle	r2, r0, asr #20
    1dac:	e8bdb003 	pop	{r0, r1, ip, sp, pc}
    1db0:	f00383f0 			; <UNDEFINED> instruction: 0xf00383f0
    1db4:	bf00f805 	svclt	0x0000f805
    1db8:	00005154 	andeq	r5, r0, r4, asr r1
    1dbc:	21454804 	cmpcs	r5, r4, lsl #16
    1dc0:	44782201 	ldrbtmi	r2, [r8], #-513	; 0x201
    1dc4:	68036800 	stmdavs	r3, {fp, sp, lr}
    1dc8:	44784802 	ldrbtmi	r4, [r8], #-2050	; 0x802
    1dcc:	b800f003 	stmdalt	r0, {r0, r1, ip, sp, lr, pc}
    1dd0:	000050fa 	strdeq	r5, [r0], -sl
    1dd4:	00003863 	andeq	r3, r0, r3, ror #16
    1dd8:	4604b510 			; <UNDEFINED> instruction: 0x4604b510
    1ddc:	44784805 	ldrbtmi	r4, [r8], #-2053	; 0x805
    1de0:	60203008 	eorvs	r3, r0, r8
    1de4:	f0024620 			; <UNDEFINED> instruction: 0xf0024620
    1de8:	4620ffd3 			; <UNDEFINED> instruction: 0x4620ffd3
    1dec:	4010e8bd 			; <UNDEFINED> instruction: 0x4010e8bd
    1df0:	bfd6f002 	svclt	0x00d6f002
    1df4:	00004efa 	strdeq	r4, [r0], -sl
    1df8:	4604b570 			; <UNDEFINED> instruction: 0x4604b570
    1dfc:	4625480c 	strtmi	r4, [r5], -ip, lsl #16
    1e00:	44784626 	ldrbtmi	r4, [r8], #-1574	; 0x626
    1e04:	f8453008 			; <UNDEFINED> instruction: 0xf8453008
    1e08:	480a0b24 	stmdami	sl, {r2, r5, r8, r9, fp}
    1e0c:	30084478 	andcc	r4, r8, r8, ror r4
    1e10:	0f28f846 	svceq	0x0028f846
    1e14:	f0024630 			; <UNDEFINED> instruction: 0xf0024630
    1e18:	4630ffbb 			; <UNDEFINED> instruction: 0x4630ffbb
    1e1c:	ffc0f002 			; <UNDEFINED> instruction: 0xffc0f002
    1e20:	f0024628 			; <UNDEFINED> instruction: 0xf0024628
    1e24:	4620ff8d 	strtmi	pc, [r0], -sp, lsl #31
    1e28:	4070e8bd 	ldrhtmi	lr, [r0], #-141	; 0xffffff73
    1e2c:	bfc0f002 	svclt	0x00c0f002
    1e30:	00004eb6 			; <UNDEFINED> instruction: 0x00004eb6
    1e34:	00004ecc 	andeq	r4, r0, ip, asr #29
    1e38:	4604b570 			; <UNDEFINED> instruction: 0x4604b570
    1e3c:	4625480d 	strtmi	r4, [r5], -sp, lsl #16
    1e40:	44784626 	ldrbtmi	r4, [r8], #-1574	; 0x626
    1e44:	f8453008 			; <UNDEFINED> instruction: 0xf8453008
    1e48:	480b0b24 	stmdami	fp, {r2, r5, r8, r9, fp}
    1e4c:	30084478 	andcc	r4, r8, r8, ror r4
    1e50:	0f28f846 	svceq	0x0028f846
    1e54:	f0024630 			; <UNDEFINED> instruction: 0xf0024630
    1e58:	4630ff9b 	shadd8mi	pc, r0, fp	; <UNPREDICTABLE>
    1e5c:	ffa0f002 			; <UNDEFINED> instruction: 0xffa0f002
    1e60:	f0024628 			; <UNDEFINED> instruction: 0xf0024628
    1e64:	4620ff6d 	strtmi	pc, [r0], -sp, ror #30
    1e68:	ffa2f002 			; <UNDEFINED> instruction: 0xffa2f002
    1e6c:	4070e8bd 	ldrhtmi	lr, [r0], #-141	; 0xffffff73
    1e70:	bedef002 	cdplt	0, 13, cr15, cr14, cr2, {0}
    1e74:	00004e76 	andeq	r4, r0, r6, ror lr
    1e78:	00004e8c 	andeq	r4, r0, ip, lsl #29
    1e7c:	b081b5f0 	strdlt	fp, [r1], r0
    1e80:	460d4604 	strmi	r4, [sp], -r4, lsl #12
    1e84:	0624f104 	strteq	pc, [r4], -r4, lsl #2
    1e88:	f0024630 			; <UNDEFINED> instruction: 0xf0024630
    1e8c:	b1e0ff19 	mvnlt	pc, r9, lsl pc	; <UNPREDICTABLE>
    1e90:	f0026a60 			; <UNDEFINED> instruction: 0xf0026a60
    1e94:	4607ffc5 	strmi	pc, [r7], -r5, asr #31
    1e98:	46396828 	ldrtmi	r6, [r9], -r8, lsr #16
    1e9c:	46286982 	strtmi	r6, [r8], -r2, lsl #19
    1ea0:	28004790 	stmdacs	r0, {r4, r7, r8, r9, sl, lr}
    1ea4:	d10763e0 	smlattle	r7, r0, r3, r6
    1ea8:	4a0a4909 	bmi	2942d4 <EnsureFrontOfChain+0x291680>
    1eac:	20066833 	andcs	r6, r6, r3, lsr r8
    1eb0:	447a4479 	ldrbtmi	r4, [sl], #-1145	; 0x479
    1eb4:	ffbcf002 			; <UNDEFINED> instruction: 0xffbcf002
    1eb8:	f0024638 			; <UNDEFINED> instruction: 0xf0024638
    1ebc:	6828ffc1 	stmdavs	r8!, {r0, r6, r7, r8, r9, sl, fp, ip, sp, lr, pc}
    1ec0:	6d426be1 	vstrvs	d22, [r2, #-900]	; 0xfffffc7c
    1ec4:	47904628 	ldrmi	r4, [r0, r8, lsr #12]
    1ec8:	b00163e0 	andlt	r6, r1, r0, ror #7
    1ecc:	bf00bdf0 	svclt	0x0000bdf0
    1ed0:	00003519 	andeq	r3, r0, r9, lsl r5
    1ed4:	0000360b 	andeq	r3, r0, fp, lsl #12
    1ed8:	b082b570 	addlt	fp, r2, r0, ror r5
    1edc:	46054e15 			; <UNDEFINED> instruction: 0x46054e15
    1ee0:	447e466c 	ldrbtmi	r4, [lr], #-1644	; 0x66c
    1ee4:	68006830 	stmdavs	r0, {r4, r5, fp, sp, lr}
    1ee8:	46209001 	strtmi	r9, [r0], -r1
    1eec:	ffb0f002 			; <UNDEFINED> instruction: 0xffb0f002
    1ef0:	f0029800 			; <UNDEFINED> instruction: 0xf0029800
    1ef4:	f002ffb5 			; <UNDEFINED> instruction: 0xf002ffb5
    1ef8:	6beaffbb 	blvs	ffac1dec <EnsureFrontOfChain+0xffabf198>
    1efc:	0124f105 	msreq	CPSR_s, r5, lsl #2
    1f00:	0328f105 	msreq	CPSR_f, #1073741825	; 0x40000001
    1f04:	ffbcf002 			; <UNDEFINED> instruction: 0xffbcf002
    1f08:	ffc2f002 			; <UNDEFINED> instruction: 0xffc2f002
    1f0c:	f0022101 			; <UNDEFINED> instruction: 0xf0022101
    1f10:	f002ffc7 			; <UNDEFINED> instruction: 0xf002ffc7
    1f14:	2101ffcd 	smlabtcs	r1, sp, pc, pc	; <UNPREDICTABLE>
    1f18:	ffd2f002 			; <UNDEFINED> instruction: 0xffd2f002
    1f1c:	f0004620 			; <UNDEFINED> instruction: 0xf0004620
    1f20:	6830f839 	ldmdavs	r0!, {r0, r3, r4, r5, fp, ip, sp, lr, pc}
    1f24:	99016800 	stmdbls	r1, {fp, sp, lr}
    1f28:	d1011a40 	tstle	r1, r0, asr #20
    1f2c:	bd70b002 	ldcllt	0, cr11, [r0, #-8]!
    1f30:	ff46f002 			; <UNDEFINED> instruction: 0xff46f002
    1f34:	00004fd6 	ldrdeq	r4, [r0], -r6
    1f38:	b082b5b0 			; <UNDEFINED> instruction: 0xb082b5b0
    1f3c:	466c4d0b 	strbtmi	r4, [ip], -fp, lsl #26
    1f40:	6828447d 	stmdavs	r8!, {r0, r2, r3, r4, r5, r6, sl, lr}
    1f44:	90016800 	andls	r6, r1, r0, lsl #16
    1f48:	f0024620 			; <UNDEFINED> instruction: 0xf0024620
    1f4c:	9800ff81 	stmdals	r0, {r0, r7, r8, r9, sl, fp, ip, sp, lr, pc}
    1f50:	ff86f002 			; <UNDEFINED> instruction: 0xff86f002
    1f54:	f0004620 			; <UNDEFINED> instruction: 0xf0004620
    1f58:	6828f81d 	stmdavs	r8!, {r0, r2, r3, r4, fp, ip, sp, lr, pc}
    1f5c:	99016800 	stmdbls	r1, {fp, sp, lr}
    1f60:	d1011a40 	tstle	r1, r0, asr #20
    1f64:	bdb0b002 	ldclt	0, cr11, [r0, #8]!
    1f68:	ff2af002 			; <UNDEFINED> instruction: 0xff2af002
    1f6c:	00004f78 	andeq	r4, r0, r8, ror pc
    1f70:	3024b580 	eorcc	fp, r4, r0, lsl #11
    1f74:	fea4f002 	cdp2	0, 10, cr15, cr4, cr2, {0}
    1f78:	bd80b100 	stfltd	f3, [r0]
    1f7c:	ff88f002 			; <UNDEFINED> instruction: 0xff88f002
    1f80:	f0022101 			; <UNDEFINED> instruction: 0xf0022101
    1f84:	f002ff8d 			; <UNDEFINED> instruction: 0xf002ff8d
    1f88:	2101ff93 			; <UNDEFINED> instruction: 0x2101ff93
    1f8c:	4080e8bd 			; <UNDEFINED> instruction: 0x4080e8bd
    1f90:	bf96f002 	svclt	0x0096f002
    1f94:	4604b510 			; <UNDEFINED> instruction: 0x4604b510
    1f98:	b1306820 	teqlt	r0, r0, lsr #16
    1f9c:	f8516801 			; <UNDEFINED> instruction: 0xf8516801
    1fa0:	44081c0c 	strmi	r1, [r8], #-3084	; 0xc0c
    1fa4:	f0024621 			; <UNDEFINED> instruction: 0xf0024621
    1fa8:	4620ff93 	qadd8mi	pc, r0, r3	; <UNPREDICTABLE>
    1fac:	0000bd10 	andeq	fp, r0, r0, lsl sp
    1fb0:	b084b510 	addlt	fp, r4, r0, lsl r5
    1fb4:	22004c0d 	andcs	r4, r0, #3328	; 0xd00
    1fb8:	5380f44f 	orrpl	pc, r0, #1325400064	; 0x4f000000
    1fbc:	6821447c 	stmdavs	r1!, {r2, r3, r4, r5, r6, sl, lr}
    1fc0:	91036809 	tstls	r3, r9, lsl #16
    1fc4:	e9cda906 	stmib	sp, {r1, r2, r8, fp, sp, pc}^
    1fc8:	49091101 	stmdbmi	r9, {r0, r8, ip}
    1fcc:	91004479 	tstls	r0, r9, ror r4
    1fd0:	5180f44f 	orrpl	pc, r0, pc, asr #8
    1fd4:	ff84f002 			; <UNDEFINED> instruction: 0xff84f002
    1fd8:	68096821 	stmdavs	r9, {r0, r5, fp, sp, lr}
    1fdc:	1a899a03 	bne	fe2687f0 <EnsureFrontOfChain+0xfe265b9c>
    1fe0:	b004d101 	andlt	sp, r4, r1, lsl #2
    1fe4:	f002bd10 			; <UNDEFINED> instruction: 0xf002bd10
    1fe8:	bf00feeb 	svclt	0x0000feeb
    1fec:	00004efc 	strdeq	r4, [r0], -ip
    1ff0:	0000355c 	andeq	r3, r0, ip, asr r5
    1ff4:	4604b510 			; <UNDEFINED> instruction: 0x4604b510
    1ff8:	44784806 	ldrbtmi	r4, [r8], #-2054	; 0x806
    1ffc:	60203008 	eorvs	r3, r0, r8
    2000:	f0024620 			; <UNDEFINED> instruction: 0xf0024620
    2004:	4620fec5 	strtmi	pc, [r0], -r5, asr #29
    2008:	fecaf002 	cdp2	0, 12, cr15, cr10, cr2, {0}
    200c:	4010e8bd 			; <UNDEFINED> instruction: 0x4010e8bd
    2010:	be0ef002 	cdplt	0, 0, cr15, cr14, cr2, {0}
    2014:	00004cde 	ldrdeq	r4, [r0], -lr
    2018:	4614b510 			; <UNDEFINED> instruction: 0x4614b510
    201c:	b1244608 	teqlt	r4, r8, lsl #12
    2020:	fe36f002 	cdp2	0, 3, cr15, cr6, cr2, {0}
    2024:	3c013004 	stccc	0, cr3, [r1], {4}
    2028:	bd10d1fa 	ldfltd	f5, [r0, #-1000]	; 0xfffffc18
    202c:	4614b510 			; <UNDEFINED> instruction: 0x4614b510
    2030:	b1244608 	teqlt	r4, r8, lsl #12
    2034:	fe84f002 	cdp2	0, 8, cr15, cr4, cr2, {0}
    2038:	3c013004 	stccc	0, cr3, [r1], {4}
    203c:	bd10d1fa 	ldfltd	f5, [r0, #-1000]	; 0xfffffc18
    2040:	461cb5b0 			; <UNDEFINED> instruction: 0x461cb5b0
    2044:	46084615 			; <UNDEFINED> instruction: 0x46084615
    2048:	4629b134 			; <UNDEFINED> instruction: 0x4629b134
    204c:	ff50f002 			; <UNDEFINED> instruction: 0xff50f002
    2050:	30043504 	andcc	r3, r4, r4, lsl #10
    2054:	d1f83c01 	mvnsle	r3, r1, lsl #24
    2058:	b5b0bdb0 	ldrlt	fp, [r0, #3504]!	; 0xdb0
    205c:	4615461c 			; <UNDEFINED> instruction: 0x4615461c
    2060:	b12c4608 	teqlt	ip, r8, lsl #12
    2064:	f0024629 			; <UNDEFINED> instruction: 0xf0024629
    2068:	3004ff43 	andcc	pc, r4, r3, asr #30
    206c:	d1f93c01 	mvnsle	r3, r1, lsl #24
    2070:	b580bdb0 	strlt	fp, [r0, #3504]	; 0xdb0
    2074:	4608009b 			; <UNDEFINED> instruction: 0x4608009b
    2078:	461a4611 			; <UNDEFINED> instruction: 0x461a4611
    207c:	ff40f002 			; <UNDEFINED> instruction: 0xff40f002
    2080:	0000bd80 	andeq	fp, r0, r0, lsl #27
    2084:	b084b580 	addlt	fp, r4, r0, lsl #11
    2088:	44784810 	ldrbtmi	r4, [r8], #-2064	; 0x810
    208c:	68006800 	stmdavs	r0, {fp, sp, lr}
    2090:	480f9003 	stmdami	pc, {r0, r1, ip, pc}	; <UNPREDICTABLE>
    2094:	e8d04478 	ldm	r0, {r3, r4, r5, r6, sl, lr}^
    2098:	30010faf 	andcc	r0, r1, pc, lsr #31
    209c:	4668d00a 	strbtmi	sp, [r8], -sl
    20a0:	90024a0d 	andls	r4, r2, sp, lsl #20
    20a4:	9001a802 	andls	sl, r1, r2, lsl #16
    20a8:	a901480a 	stmdbge	r1, {r1, r3, fp, lr}
    20ac:	4478447a 	ldrbtmi	r4, [r8], #-1146	; 0x47a
    20b0:	ff2ef002 			; <UNDEFINED> instruction: 0xff2ef002
    20b4:	44784809 	ldrbtmi	r4, [r8], #-2057	; 0x809
    20b8:	68006800 	stmdavs	r0, {fp, sp, lr}
    20bc:	1a409903 	bne	10284d0 <EnsureFrontOfChain+0x102587c>
    20c0:	b004d101 	andlt	sp, r4, r1, lsl #2
    20c4:	f002bd80 			; <UNDEFINED> instruction: 0xf002bd80
    20c8:	bf00fe7b 	svclt	0x0000fe7b
    20cc:	00004e2e 	andeq	r4, r0, lr, lsr #28
    20d0:	00005de8 	andeq	r5, r0, r8, ror #27
    20d4:	00005dce 	andeq	r5, r0, lr, asr #27
    20d8:	00000cbd 			; <UNDEFINED> instruction: 0x00000cbd
    20dc:	00004e02 	andeq	r4, r0, r2, lsl #28
    20e0:	4ff0e92d 	svcmi	0x00f0e92d
    20e4:	4682b087 	strmi	fp, [r2], r7, lsl #1
    20e8:	920048b8 	andls	r4, r0, #184, 16	; 0xb80000
    20ec:	44784689 	ldrbtmi	r4, [r8], #-1673	; 0x689
    20f0:	68006800 	stmdavs	r0, {fp, sp, lr}
    20f4:	48b69006 	ldmmi	r6!, {r1, r2, ip, pc}
    20f8:	30184478 	andscc	r4, r8, r8, ror r4
    20fc:	0fafe8d0 	svceq	0x00afe8d0
    2100:	d00b3001 	andle	r3, fp, r1
    2104:	4ab4a801 	bmi	fed2c110 <EnsureFrontOfChain+0xfed294bc>
    2108:	a8049004 	stmdage	r4, {r2, ip, pc}
    210c:	48b19003 	ldmmi	r1!, {r0, r1, ip, pc}
    2110:	447aa903 	ldrbtmi	sl, [sl], #-2307	; 0x903
    2114:	30184478 	andscc	r4, r8, r8, ror r4
    2118:	fefaf002 	cdp2	0, 15, cr15, cr10, cr2, {0}
    211c:	447848af 	ldrbtmi	r4, [r8], #-2223	; 0x8af
    2120:	f0026940 			; <UNDEFINED> instruction: 0xf0026940
    2124:	2800fefd 	stmdacs	r0, {r0, r2, r3, r4, r5, r6, r7, r9, sl, fp, ip, sp, lr, pc}
    2128:	48cbd04a 	stmiami	fp, {r1, r3, r6, ip, lr, pc}^
    212c:	08caebca 	stmiaeq	sl, {r1, r3, r6, r7, r8, r9, fp, sp, lr, pc}^
    2130:	eb004478 	bl	13318 <EnsureFrontOfChain+0x106c4>
    2134:	f8d404c8 			; <UNDEFINED> instruction: 0xf8d404c8
    2138:	af04b008 	svcge	0x0004b008
    213c:	f0024638 			; <UNDEFINED> instruction: 0xf0024638
    2140:	9800fef7 	stmdals	r0, {r0, r1, r2, r4, r5, r6, r7, r9, sl, fp, ip, sp, lr, pc}
    2144:	0610f104 	ldreq	pc, [r0], -r4, lsl #2
    2148:	f1002400 			; <UNDEFINED> instruction: 0xf1002400
    214c:	46280568 	strtmi	r0, [r8], -r8, ror #10
    2150:	f0024621 			; <UNDEFINED> instruction: 0xf0024621
    2154:	2801fef5 	stmdacs	r1, {r0, r2, r4, r5, r6, r7, r9, sl, fp, ip, sp, lr, pc}
    2158:	4630d005 	ldrtmi	sp, [r0], -r5
    215c:	f0024621 			; <UNDEFINED> instruction: 0xf0024621
    2160:	2801feef 	stmdacs	r1, {r0, r1, r2, r3, r5, r6, r7, r9, sl, fp, ip, sp, lr, pc}
    2164:	4638d103 	ldrtmi	sp, [r8], -r3, lsl #2
    2168:	f0024621 			; <UNDEFINED> instruction: 0xf0024621
    216c:	3401fef1 	strcc	pc, [r1], #-3825	; 0xef1
    2170:	d1ec2c40 	mvnle	r2, r0, asr #24
    2174:	447848b9 	ldrbtmi	r4, [r8], #-2233	; 0x8b9
    2178:	00c8eb00 	sbceq	lr, r8, r0, lsl #22
    217c:	ea5f1d04 	b	17c9594 <EnsureFrontOfChain+0x17c6940>
    2180:	d403004b 	strle	r0, [r3], #-75	; 0x4b
    2184:	4651a804 	ldrbmi	sl, [r1], -r4, lsl #16
    2188:	fee2f002 	cdp2	0, 14, cr15, cr2, cr2, {0}
    218c:	220048b4 	andcs	r4, r0, #180, 16	; 0xb40000
    2190:	68834478 	stmvs	r3, {r3, r4, r5, r6, sl, lr}
    2194:	2002a904 	andcs	sl, r2, r4, lsl #18
    2198:	ea5f4798 	b	17d4000 <EnsureFrontOfChain+0x17d13ac>
    219c:	d409704b 	strle	r7, [r9], #-75	; 0x4b
    21a0:	29016821 	stmdbcs	r1, {r0, r5, fp, sp, lr}
    21a4:	8084f000 	addhi	pc, r4, r0
    21a8:	f0002900 			; <UNDEFINED> instruction: 0xf0002900
    21ac:	46508107 	ldrbmi	r8, [r0], -r7, lsl #2
    21b0:	e07d4788 	rsbs	r4, sp, r8, lsl #15
    21b4:	9a006823 	bls	1c248 <EnsureFrontOfChain+0x195f4>
    21b8:	46494650 			; <UNDEFINED> instruction: 0x46494650
    21bc:	e0774798 			; <UNDEFINED> instruction: 0xe0774798
    21c0:	ebca4887 	bl	ff2943e4 <EnsureFrontOfChain+0xff291790>
    21c4:	447804ca 	ldrbtmi	r0, [r8], #-1226	; 0x4ca
    21c8:	05c4eb00 	strbeq	lr, [r4, #2816]	; 0xb00
    21cc:	0f18f855 	svceq	0x0018f855
    21d0:	d0aa2800 	adcle	r2, sl, r0, lsl #16
    21d4:	4f844883 	svcmi	0x00844883
    21d8:	447f4478 	ldrbtmi	r4, [pc], #-1144	; 21e0 <dl_iterate_phdr@plt+0xab4>
    21dc:	00c4eb00 	sbceq	lr, r4, r0, lsl #22
    21e0:	6a06687b 	bvs	19c3d4 <EnsureFrontOfChain+0x199780>
    21e4:	011cf100 	tsteq	ip, r0, lsl #2
    21e8:	2002aa01 	andcs	sl, r2, r1, lsl #20
    21ec:	f1074798 			; <UNDEFINED> instruction: 0xf1074798
    21f0:	f0060018 			; <UNDEFINED> instruction: 0xf0060018
    21f4:	e8d00601 	ldm	r0, {r0, r9, sl}^
    21f8:	30010faf 	andcc	r0, r1, pc, lsr #31
    21fc:	a802d00b 	stmdage	r2, {r0, r1, r3, ip, lr, pc}
    2200:	90044a7b 	andls	r4, r4, fp, ror sl
    2204:	9003a804 	andls	sl, r3, r4, lsl #16
    2208:	a9034878 	stmdbge	r3, {r3, r4, r5, r6, fp, lr}
    220c:	4478447a 	ldrbtmi	r4, [r8], #-1146	; 0x47a
    2210:	f0023018 			; <UNDEFINED> instruction: 0xf0023018
    2214:	4877fe7d 	ldmdami	r7!, {r0, r2, r3, r4, r5, r6, r9, sl, fp, ip, sp, lr, pc}^
    2218:	69404478 	stmdbvs	r0, {r3, r4, r5, r6, sl, lr}^
    221c:	fe80f002 	cdp2	0, 8, cr15, cr0, cr2, {0}
    2220:	b9c64607 	stmiblt	r6, {r0, r1, r2, r9, sl, lr}^
    2224:	44784874 	ldrbtmi	r4, [r8], #-2164	; 0x874
    2228:	e8d03018 	ldm	r0, {r3, r4, ip, sp}^
    222c:	30010faf 	andcc	r0, r1, pc, lsr #31
    2230:	a802d00b 	stmdage	r2, {r0, r1, r3, ip, lr, pc}
    2234:	90044a72 	andls	r4, r4, r2, ror sl
    2238:	9003a804 	andls	sl, r3, r4, lsl #16
    223c:	a903486f 	stmdbge	r3, {r0, r1, r2, r3, r5, r6, fp, lr}
    2240:	4478447a 	ldrbtmi	r4, [r8], #-1146	; 0x47a
    2244:	f0023018 			; <UNDEFINED> instruction: 0xf0023018
    2248:	486efe63 	stmdami	lr!, {r0, r1, r5, r6, r9, sl, fp, ip, sp, lr, pc}^
    224c:	44782101 	ldrbtmi	r2, [r8], #-257	; 0x101
    2250:	f0026940 			; <UNDEFINED> instruction: 0xf0026940
    2254:	682bfe85 	stmdavs	fp!, {r0, r2, r7, r9, sl, fp, ip, sp, lr, pc}
    2258:	46509a00 	ldrbmi	r9, [r0], -r0, lsl #20
    225c:	47984649 	ldrmi	r4, [r8, r9, asr #12]
    2260:	2501b108 	strcs	fp, [r1, #-264]	; 0x108
    2264:	4868e007 	stmdami	r8!, {r0, r1, r2, sp, lr, pc}^
    2268:	25002200 	strcs	r2, [r0, #-512]	; 0x200
    226c:	68434478 	stmdavs	r3, {r3, r4, r5, r6, sl, lr}^
    2270:	2002a901 	andcs	sl, r2, r1, lsl #18
    2274:	48654798 	stmdami	r5!, {r3, r4, r7, r8, r9, sl, lr}^
    2278:	30184478 	andscc	r4, r8, r8, ror r4
    227c:	0fafe8d0 	svceq	0x00afe8d0
    2280:	d00b3001 	andle	r3, fp, r1
    2284:	4a63a802 	bmi	18ec294 <EnsureFrontOfChain+0x18e9640>
    2288:	a8049004 	stmdage	r4, {r2, ip, pc}
    228c:	48609003 	stmdami	r0!, {r0, r1, ip, pc}^
    2290:	447aa903 	ldrbtmi	sl, [sl], #-2307	; 0x903
    2294:	30184478 	andscc	r4, r8, r8, ror r4
    2298:	fe3af002 	cdp2	0, 3, cr15, cr10, cr2, {0}
    229c:	2f00485e 	svccs	0x0000485e
    22a0:	69404478 	stmdbvs	r0, {r3, r4, r5, r6, sl, lr}^
    22a4:	2701bf18 	smladcs	r1, r8, pc, fp	; <UNPREDICTABLE>
    22a8:	f0024639 			; <UNDEFINED> instruction: 0xf0024639
    22ac:	b14dfe59 	cmplt	sp, r9, asr lr
    22b0:	4478486d 	ldrbtmi	r4, [r8], #-2157	; 0x86d
    22b4:	68006800 	stmdavs	r0, {fp, sp, lr}
    22b8:	1a409906 	bne	10286d8 <EnsureFrontOfChain+0x1025a84>
    22bc:	b007d17c 	andlt	sp, r7, ip, ror r1
    22c0:	8ff0e8bd 	svchi	0x00f0e8bd
    22c4:	44784855 	ldrbtmi	r4, [r8], #-2133	; 0x855
    22c8:	05c4eb00 	strbeq	lr, [r4, #2816]	; 0xb00
    22cc:	0f28f855 	svceq	0x0028f855
    22d0:	f43f2800 			; <UNDEFINED> instruction: 0xf43f2800
    22d4:	4852af2a 	ldmdami	r2, {r1, r3, r5, r8, r9, sl, fp, sp, pc}^
    22d8:	44784e52 	ldrbtmi	r4, [r8], #-3666	; 0xe52
    22dc:	eb00447e 	bl	134dc <EnsureFrontOfChain+0x10888>
    22e0:	687300c4 	ldmdavs	r3!, {r2, r6, r7}^
    22e4:	f1006b04 			; <UNDEFINED> instruction: 0xf1006b04
    22e8:	aa01012c 	bge	427a0 <EnsureFrontOfChain+0x3fb4c>
    22ec:	47982002 	ldrmi	r2, [r8, r2]
    22f0:	0018f106 	andseq	pc, r8, r6, lsl #2
    22f4:	0401f004 	streq	pc, [r1], #-4
    22f8:	0fafe8d0 	svceq	0x00afe8d0
    22fc:	d00b3001 	andle	r3, fp, r1
    2300:	4a4aa802 	bmi	12ac310 <EnsureFrontOfChain+0x12a96bc>
    2304:	a8049004 	stmdage	r4, {r2, ip, pc}
    2308:	48479003 	stmdami	r7, {r0, r1, ip, pc}^
    230c:	447aa903 	ldrbtmi	sl, [sl], #-2307	; 0x903
    2310:	30184478 	andscc	r4, r8, r8, ror r4
    2314:	fdfcf002 	ldc2l	0, cr15, [ip, #8]!
    2318:	44784845 	ldrbtmi	r4, [r8], #-2117	; 0x845
    231c:	f0026940 			; <UNDEFINED> instruction: 0xf0026940
    2320:	4607fdff 			; <UNDEFINED> instruction: 0x4607fdff
    2324:	4843b9c4 	stmdami	r3, {r2, r6, r7, r8, fp, ip, sp, pc}^
    2328:	30184478 	andscc	r4, r8, r8, ror r4
    232c:	0fafe8d0 	svceq	0x00afe8d0
    2330:	d00b3001 	andle	r3, fp, r1
    2334:	4a41a802 	bmi	106c344 <EnsureFrontOfChain+0x10696f0>
    2338:	a8049004 	stmdage	r4, {r2, ip, pc}
    233c:	483e9003 	ldmdami	lr!, {r0, r1, ip, pc}
    2340:	447aa903 	ldrbtmi	sl, [sl], #-2307	; 0x903
    2344:	30184478 	andscc	r4, r8, r8, ror r4
    2348:	fde2f002 	stc2l	0, cr15, [r2, #8]!
    234c:	2101483c 	tstcs	r1, ip, lsr r8
    2350:	69404478 	stmdbvs	r0, {r3, r4, r5, r6, sl, lr}^
    2354:	fe04f002 	cdp2	0, 0, cr15, cr4, cr2, {0}
    2358:	9a00682b 	bls	1c40c <EnsureFrontOfChain+0x197b8>
    235c:	46494650 			; <UNDEFINED> instruction: 0x46494650
    2360:	b1084798 			; <UNDEFINED> instruction: 0xb1084798
    2364:	e0072401 	and	r2, r7, r1, lsl #8
    2368:	22004836 	andcs	r4, r0, #3538944	; 0x360000
    236c:	44782400 	ldrbtmi	r2, [r8], #-1024	; 0x400
    2370:	a9016843 	stmdbge	r1, {r0, r1, r6, fp, sp, lr}
    2374:	47982002 	ldrmi	r2, [r8, r2]
    2378:	44784833 	ldrbtmi	r4, [r8], #-2099	; 0x833
    237c:	e8d03018 	ldm	r0, {r3, r4, ip, sp}^
    2380:	30010faf 	andcc	r0, r1, pc, lsr #31
    2384:	a802d00b 	stmdage	r2, {r0, r1, r3, ip, lr, pc}
    2388:	90044a31 	andls	r4, r4, r1, lsr sl
    238c:	9003a804 	andls	sl, r3, r4, lsl #16
    2390:	a903482e 	stmdbge	r3, {r1, r2, r3, r5, fp, lr}
    2394:	4478447a 	ldrbtmi	r4, [r8], #-1146	; 0x47a
    2398:	f0023018 			; <UNDEFINED> instruction: 0xf0023018
    239c:	482dfdb9 	stmdami	sp!, {r0, r3, r4, r5, r7, r8, sl, fp, ip, sp, lr, pc}
    23a0:	44782f00 	ldrbtmi	r2, [r8], #-3840	; 0xf00
    23a4:	bf186940 	svclt	0x00186940
    23a8:	46392701 	ldrtmi	r2, [r9], -r1, lsl #14
    23ac:	fdd8f002 	ldc2l	0, cr15, [r8, #8]
    23b0:	f47f2c00 			; <UNDEFINED> instruction: 0xf47f2c00
    23b4:	e6b8af7d 			; <UNDEFINED> instruction: 0xe6b8af7d
    23b8:	fd02f002 	stc2	0, cr15, [r2, #-8]
    23bc:	46514829 	ldrbmi	r4, [r1], -r9, lsr #16
    23c0:	f0004478 			; <UNDEFINED> instruction: 0xf0004478
    23c4:	f002f853 			; <UNDEFINED> instruction: 0xf002f853
    23c8:	bf00fdd3 	svclt	0x0000fdd3
    23cc:	00004dca 	andeq	r4, r0, sl, asr #27
    23d0:	00005d84 	andeq	r5, r0, r4, lsl #27
    23d4:	00005d68 	andeq	r5, r0, r8, ror #26
    23d8:	00000c2b 	andeq	r0, r0, fp, lsr #24
    23dc:	00005d5e 	andeq	r5, r0, lr, asr sp
    23e0:	00004e3e 	andeq	r4, r0, lr, lsr lr
    23e4:	00004e2c 	andeq	r4, r0, ip, lsr #28
    23e8:	00005ca2 	andeq	r5, r0, r2, lsr #25
    23ec:	00005c6e 	andeq	r5, r0, lr, ror #24
    23f0:	00000b31 	andeq	r0, r0, r1, lsr fp
    23f4:	00005c64 	andeq	r5, r0, r4, ror #24
    23f8:	00005c56 	andeq	r5, r0, r6, asr ip
    23fc:	00005c3a 	andeq	r5, r0, sl, lsr ip
    2400:	00000afd 	strdeq	r0, [r0], -sp
    2404:	00005c2e 	andeq	r5, r0, lr, lsr #24
    2408:	00005c10 	andeq	r5, r0, r0, lsl ip
    240c:	00005c04 	andeq	r5, r0, r4, lsl #24
    2410:	00005be8 	andeq	r5, r0, r8, ror #23
    2414:	00000aab 	andeq	r0, r0, fp, lsr #21
    2418:	00005bdc 	ldrdeq	r5, [r0], -ip
    241c:	00004d3e 	andeq	r4, r0, lr, lsr sp
    2420:	00004d2a 	andeq	r4, r0, sl, lsr #26
    2424:	00005ba0 	andeq	r5, r0, r0, lsr #23
    2428:	00005b6c 	andeq	r5, r0, ip, ror #22
    242c:	00000a2f 	andeq	r0, r0, pc, lsr #20
    2430:	00005b62 	andeq	r5, r0, r2, ror #22
    2434:	00005b54 	andeq	r5, r0, r4, asr fp
    2438:	00005b38 	andeq	r5, r0, r8, lsr fp
    243c:	000009fb 	strdeq	r0, [r0], -fp
    2440:	00005b2c 	andeq	r5, r0, ip, lsr #22
    2444:	00005b0e 	andeq	r5, r0, lr, lsl #22
    2448:	00005b02 	andeq	r5, r0, r2, lsl #22
    244c:	00005ae6 	andeq	r5, r0, r6, ror #21
    2450:	000009a9 	andeq	r0, r0, r9, lsr #19
    2454:	00005ada 	ldrdeq	r5, [r0], -sl
    2458:	00004ed4 	ldrdeq	r4, [r0], -r4	; <UNPREDICTABLE>
    245c:	00004e8e 	andeq	r4, r0, lr, lsl #29
    2460:	00005cec 	andeq	r5, r0, ip, ror #25
    2464:	000032b3 			; <UNDEFINED> instruction: 0x000032b3
    2468:	00004c06 	andeq	r4, r0, r6, lsl #24
    246c:	b510b083 	ldrlt	fp, [r0, #-131]	; 0x83
    2470:	f50db0c5 			; <UNDEFINED> instruction: 0xf50db0c5
    2474:	e88c7c8e 	stm	ip, {r1, r2, r3, r7, sl, fp, ip, sp, lr}
    2478:	4913000e 	ldmdbmi	r3, {r1, r2, r3}
    247c:	f44f2200 	vst1.8	{d18-d21}, [pc], r0
    2480:	44797380 	ldrbtmi	r7, [r9], #-896	; 0x380
    2484:	68096809 	stmdavs	r9, {r0, r3, fp, sp, lr}
    2488:	a9479144 	stmdbge	r7, {r2, r6, r8, ip, pc}^
    248c:	e9cd9103 	stmib	sp, {r0, r1, r8, ip, pc}^
    2490:	ac040100 	stfges	f0, [r4], {-0}
    2494:	7180f44f 	orrvc	pc, r0, pc, asr #8
    2498:	f0024620 			; <UNDEFINED> instruction: 0xf0024620
    249c:	490bfd21 	stmdbmi	fp, {r0, r5, r8, sl, fp, ip, sp, lr, pc}
    24a0:	46222006 	strtmi	r2, [r2], -r6
    24a4:	f0024479 			; <UNDEFINED> instruction: 0xf0024479
    24a8:	4809fd6b 	stmdami	r9, {r0, r1, r3, r5, r6, r8, sl, fp, ip, sp, lr, pc}
    24ac:	68004478 	stmdavs	r0, {r3, r4, r5, r6, sl, lr}
    24b0:	99446800 	stmdbls	r4, {fp, sp, lr}^
    24b4:	d1041a40 	tstle	r4, r0, asr #20
    24b8:	e8bdb045 	pop	{r0, r2, r6, ip, sp, pc}
    24bc:	b0034010 	andlt	r4, r3, r0, lsl r0
    24c0:	f0024770 			; <UNDEFINED> instruction: 0xf0024770
    24c4:	bf00fc7d 	svclt	0x0000fc7d
    24c8:	00004a36 	andeq	r4, r0, r6, lsr sl
    24cc:	00003267 	andeq	r3, r0, r7, ror #4
    24d0:	00004a0c 	andeq	r4, r0, ip, lsl #20

000024d4 <sigaction>:
    24d4:	e92d 47f0 	stmdb	sp!, {r4, r5, r6, r7, r8, r9, sl, lr}
    24d8:	b084      	sub	sp, #16
    24da:	4606      	mov	r6, r0
    24dc:	4831      	ldr	r0, [pc, #196]	; (25a4 <sigaction+0xd0>)
    24de:	4614      	mov	r4, r2
    24e0:	460d      	mov	r5, r1
    24e2:	4478      	add	r0, pc
    24e4:	6800      	ldr	r0, [r0, #0]
    24e6:	6800      	ldr	r0, [r0, #0]
    24e8:	9003      	str	r0, [sp, #12]
    24ea:	482f      	ldr	r0, [pc, #188]	; (25a8 <sigaction+0xd4>)
    24ec:	4478      	add	r0, pc
    24ee:	e8d0 0faf 			; <UNDEFINED> instruction: 0xe8d00faf
    24f2:	3001      	adds	r0, #1
    24f4:	d00a      	beq.n	250c <sigaction+0x38>
    24f6:	4668      	mov	r0, sp
    24f8:	4a2d      	ldr	r2, [pc, #180]	; (25b0 <sigaction+0xdc>)
    24fa:	9002      	str	r0, [sp, #8]
    24fc:	a802      	add	r0, sp, #8
    24fe:	9001      	str	r0, [sp, #4]
    2500:	482a      	ldr	r0, [pc, #168]	; (25ac <sigaction+0xd8>)
    2502:	a901      	add	r1, sp, #4
    2504:	447a      	add	r2, pc
    2506:	4478      	add	r0, pc
    2508:	f002 fd02 	bl	4f10 <EnsureFrontOfChain+0x22bc>
    250c:	1e70      	subs	r0, r6, #1
    250e:	2840      	cmp	r0, #64	; 0x40
    2510:	d306      	bcc.n	2520 <sigaction+0x4c>
    2512:	f002 fbed 	bl	4cf0 <EnsureFrontOfChain+0x209c>
    2516:	2116      	movs	r1, #22
    2518:	6001      	str	r1, [r0, #0]
    251a:	f04f 30ff 	mov.w	r0, #4294967295	; 0xffffffff
    251e:	e034      	b.n	258a <sigaction+0xb6>
    2520:	4925      	ldr	r1, [pc, #148]	; (25b8 <sigaction+0xe4>)
    2522:	ebc6 00c6 	rsb	r0, r6, r6, lsl #3
    2526:	4479      	add	r1, pc
    2528:	f811 1030 	ldrb.w	r1, [r1, r0, lsl #3]
    252c:	b331      	cbz	r1, 257c <sigaction+0xa8>
    252e:	4923      	ldr	r1, [pc, #140]	; (25bc <sigaction+0xe8>)
    2530:	2d00      	cmp	r5, #0
    2532:	4479      	add	r1, pc
    2534:	eb01 01c0 	add.w	r1, r1, r0, lsl #3
    2538:	f851 9f04 	ldr.w	r9, [r1, #4]!
    253c:	460a      	mov	r2, r1
    253e:	460b      	mov	r3, r1
    2540:	f8d1 800c 	ldr.w	r8, [r1, #12]
    2544:	f852 af08 	ldr.w	sl, [r2, #8]!
    2548:	f853 6f04 	ldr.w	r6, [r3, #4]!
    254c:	d00f      	beq.n	256e <sigaction+0x9a>
    254e:	68af      	ldr	r7, [r5, #8]
    2550:	601f      	str	r7, [r3, #0]
    2552:	682b      	ldr	r3, [r5, #0]
    2554:	600b      	str	r3, [r1, #0]
    2556:	68e9      	ldr	r1, [r5, #12]
    2558:	6011      	str	r1, [r2, #0]
    255a:	4919      	ldr	r1, [pc, #100]	; (25c0 <sigaction+0xec>)
    255c:	4479      	add	r1, pc
    255e:	eb01 07c0 	add.w	r7, r1, r0, lsl #3
    2562:	f107 0010 	add.w	r0, r7, #16
    2566:	f002 fce3 	bl	4f30 <EnsureFrontOfChain+0x22dc>
    256a:	6868      	ldr	r0, [r5, #4]
    256c:	6138      	str	r0, [r7, #16]
    256e:	b11c      	cbz	r4, 2578 <sigaction+0xa4>
    2570:	e9c4 9800 	strd	r9, r8, [r4]
    2574:	e9c4 6a02 	strd	r6, sl, [r4, #8]
    2578:	2000      	movs	r0, #0
    257a:	e006      	b.n	258a <sigaction+0xb6>
    257c:	480d      	ldr	r0, [pc, #52]	; (25b4 <sigaction+0xe0>)
    257e:	4629      	mov	r1, r5
    2580:	4622      	mov	r2, r4
    2582:	4478      	add	r0, pc
    2584:	68c3      	ldr	r3, [r0, #12]
    2586:	4630      	mov	r0, r6
    2588:	4798      	blx	r3
    258a:	490e      	ldr	r1, [pc, #56]	; (25c4 <sigaction+0xf0>)
    258c:	4479      	add	r1, pc
    258e:	6809      	ldr	r1, [r1, #0]
    2590:	6809      	ldr	r1, [r1, #0]
    2592:	9a03      	ldr	r2, [sp, #12]
    2594:	1a89      	subs	r1, r1, r2
    2596:	d102      	bne.n	259e <sigaction+0xca>
    2598:	b004      	add	sp, #16
    259a:	e8bd 87f0 	ldmia.w	sp!, {r4, r5, r6, r7, r8, r9, sl, pc}
    259e:	f002 fc0f 	bl	4dc0 <EnsureFrontOfChain+0x216c>
    25a2:	bf00      	nop
    25a4:	49d6      	ldr	r1, [pc, #856]	; (2900 <sigprocmask+0x10c>)
    25a6:	0000      	movs	r0, r0
    25a8:	5990      	ldr	r0, [r2, r6]
    25aa:	0000      	movs	r0, r0
    25ac:	5976      	ldr	r6, [r6, r5]
    25ae:	0000      	movs	r0, r0
    25b0:	0865      	lsrs	r5, r4, #1
    25b2:	0000      	movs	r0, r0
    25b4:	58fa      	ldr	r2, [r7, r3]
    25b6:	0000      	movs	r0, r0
    25b8:	4ade      	ldr	r2, [pc, #888]	; (2934 <sigprocmask64+0x4>)
    25ba:	0000      	movs	r0, r0
    25bc:	4ad2      	ldr	r2, [pc, #840]	; (2908 <sigprocmask+0x114>)
    25be:	0000      	movs	r0, r0
    25c0:	4aa8      	ldr	r2, [pc, #672]	; (2864 <sigprocmask+0x70>)
    25c2:	0000      	movs	r0, r0
    25c4:	492c      	ldr	r1, [pc, #176]	; (2678 <sigaction64+0xb0>)
	...

000025c8 <sigaction64>:
    25c8:	b570      	push	{r4, r5, r6, lr}
    25ca:	b088      	sub	sp, #32
    25cc:	4606      	mov	r6, r0
    25ce:	482d      	ldr	r0, [pc, #180]	; (2684 <sigaction64+0xbc>)
    25d0:	4614      	mov	r4, r2
    25d2:	460d      	mov	r5, r1
    25d4:	4478      	add	r0, pc
    25d6:	6800      	ldr	r0, [r0, #0]
    25d8:	6800      	ldr	r0, [r0, #0]
    25da:	9007      	str	r0, [sp, #28]
    25dc:	482a      	ldr	r0, [pc, #168]	; (2688 <sigaction64+0xc0>)
    25de:	4478      	add	r0, pc
    25e0:	e8d0 0faf 			; <UNDEFINED> instruction: 0xe8d00faf
    25e4:	3001      	adds	r0, #1
    25e6:	d00a      	beq.n	25fe <sigaction64+0x36>
    25e8:	4668      	mov	r0, sp
    25ea:	4a29      	ldr	r2, [pc, #164]	; (2690 <sigaction64+0xc8>)
    25ec:	9002      	str	r0, [sp, #8]
    25ee:	a802      	add	r0, sp, #8
    25f0:	9001      	str	r0, [sp, #4]
    25f2:	4826      	ldr	r0, [pc, #152]	; (268c <sigaction64+0xc4>)
    25f4:	a901      	add	r1, sp, #4
    25f6:	447a      	add	r2, pc
    25f8:	4478      	add	r0, pc
    25fa:	f002 fc89 	bl	4f10 <EnsureFrontOfChain+0x22bc>
    25fe:	1e70      	subs	r0, r6, #1
    2600:	2840      	cmp	r0, #64	; 0x40
    2602:	d306      	bcc.n	2612 <sigaction64+0x4a>
    2604:	f002 fb74 	bl	4cf0 <EnsureFrontOfChain+0x209c>
    2608:	2116      	movs	r1, #22
    260a:	6001      	str	r1, [r0, #0]
    260c:	f04f 30ff 	mov.w	r0, #4294967295	; 0xffffffff
    2610:	e02c      	b.n	266c <sigaction64+0xa4>
    2612:	4921      	ldr	r1, [pc, #132]	; (2698 <sigaction64+0xd0>)
    2614:	ebc6 00c6 	rsb	r0, r6, r6, lsl #3
    2618:	4479      	add	r1, pc
    261a:	f811 1030 	ldrb.w	r1, [r1, r0, lsl #3]
    261e:	b1f1      	cbz	r1, 265e <sigaction64+0x96>
    2620:	491e      	ldr	r1, [pc, #120]	; (269c <sigaction64+0xd4>)
    2622:	4479      	add	r1, pc
    2624:	eb01 02c0 	add.w	r2, r1, r0, lsl #3
    2628:	1d11      	adds	r1, r2, #4
    262a:	f961 0a8f 	vld1.32	{d16-d17}, [r1]
    262e:	a802      	add	r0, sp, #8
    2630:	6952      	ldr	r2, [r2, #20]
    2632:	2d00      	cmp	r5, #0
    2634:	4603      	mov	r3, r0
    2636:	f943 0acd 	vst1.64	{d16-d17}, [r3]!
    263a:	601a      	str	r2, [r3, #0]
    263c:	d005      	beq.n	264a <sigaction64+0x82>
    263e:	f965 0a8d 	vld1.32	{d16-d17}, [r5]!
    2642:	f941 0a8d 	vst1.32	{d16-d17}, [r1]!
    2646:	682a      	ldr	r2, [r5, #0]
    2648:	600a      	str	r2, [r1, #0]
    264a:	2c00      	cmp	r4, #0
    264c:	d005      	beq.n	265a <sigaction64+0x92>
    264e:	f960 0a8d 	vld1.32	{d16-d17}, [r0]!
    2652:	f944 0a8d 	vst1.32	{d16-d17}, [r4]!
    2656:	6800      	ldr	r0, [r0, #0]
    2658:	6020      	str	r0, [r4, #0]
    265a:	2000      	movs	r0, #0
    265c:	e006      	b.n	266c <sigaction64+0xa4>
    265e:	480d      	ldr	r0, [pc, #52]	; (2694 <sigaction64+0xcc>)
    2660:	4629      	mov	r1, r5
    2662:	4622      	mov	r2, r4
    2664:	4478      	add	r0, pc
    2666:	6903      	ldr	r3, [r0, #16]
    2668:	4630      	mov	r0, r6
    266a:	4798      	blx	r3
    266c:	490c      	ldr	r1, [pc, #48]	; (26a0 <sigaction64+0xd8>)
    266e:	4479      	add	r1, pc
    2670:	6809      	ldr	r1, [r1, #0]
    2672:	6809      	ldr	r1, [r1, #0]
    2674:	9a07      	ldr	r2, [sp, #28]
    2676:	1a89      	subs	r1, r1, r2
    2678:	d101      	bne.n	267e <sigaction64+0xb6>
    267a:	b008      	add	sp, #32
    267c:	bd70      	pop	{r4, r5, r6, pc}
    267e:	f002 fb9f 	bl	4dc0 <EnsureFrontOfChain+0x216c>
    2682:	bf00      	nop
    2684:	48e4      	ldr	r0, [pc, #912]	; (2a18 <sigprocmask64+0xe8>)
    2686:	0000      	movs	r0, r0
    2688:	589e      	ldr	r6, [r3, r2]
    268a:	0000      	movs	r0, r0
    268c:	5884      	ldr	r4, [r0, r2]
    268e:	0000      	movs	r0, r0
    2690:	0773      	lsls	r3, r6, #29
    2692:	0000      	movs	r0, r0
    2694:	5818      	ldr	r0, [r3, r0]
    2696:	0000      	movs	r0, r0
    2698:	49ec      	ldr	r1, [pc, #944]	; (2a4c <sigprocmask64+0x11c>)
    269a:	0000      	movs	r0, r0
    269c:	49e2      	ldr	r1, [pc, #904]	; (2a28 <sigprocmask64+0xf8>)
    269e:	0000      	movs	r0, r0
    26a0:	484a      	ldr	r0, [pc, #296]	; (27cc <bsd_signal+0x40>)
	...

000026a4 <signal>:
    26a4:	b5f0      	push	{r4, r5, r6, r7, lr}
    26a6:	b087      	sub	sp, #28
    26a8:	4605      	mov	r5, r0
    26aa:	4830      	ldr	r0, [pc, #192]	; (276c <signal+0xc8>)
    26ac:	460c      	mov	r4, r1
    26ae:	4478      	add	r0, pc
    26b0:	6800      	ldr	r0, [r0, #0]
    26b2:	6800      	ldr	r0, [r0, #0]
    26b4:	9006      	str	r0, [sp, #24]
    26b6:	482e      	ldr	r0, [pc, #184]	; (2770 <signal+0xcc>)
    26b8:	4478      	add	r0, pc
    26ba:	e8d0 0faf 			; <UNDEFINED> instruction: 0xe8d00faf
    26be:	3001      	adds	r0, #1
    26c0:	d00a      	beq.n	26d8 <signal+0x34>
    26c2:	a804      	add	r0, sp, #16
    26c4:	4a2c      	ldr	r2, [pc, #176]	; (2778 <signal+0xd4>)
    26c6:	9000      	str	r0, [sp, #0]
    26c8:	4668      	mov	r0, sp
    26ca:	9005      	str	r0, [sp, #20]
    26cc:	4829      	ldr	r0, [pc, #164]	; (2774 <signal+0xd0>)
    26ce:	a905      	add	r1, sp, #20
    26d0:	447a      	add	r2, pc
    26d2:	4478      	add	r0, pc
    26d4:	f002 fc1c 	bl	4f10 <EnsureFrontOfChain+0x22bc>
    26d8:	1e68      	subs	r0, r5, #1
    26da:	2840      	cmp	r0, #64	; 0x40
    26dc:	d306      	bcc.n	26ec <signal+0x48>
    26de:	f002 fb07 	bl	4cf0 <EnsureFrontOfChain+0x209c>
    26e2:	2116      	movs	r1, #22
    26e4:	f04f 35ff 	mov.w	r5, #4294967295	; 0xffffffff
    26e8:	6001      	str	r1, [r0, #0]
    26ea:	e033      	b.n	2754 <signal+0xb0>
    26ec:	4669      	mov	r1, sp
    26ee:	efc0 0050 	vmov.i32	q8, #0	; 0x00000000
    26f2:	2008      	movs	r0, #8
    26f4:	460f      	mov	r7, r1
    26f6:	f041 0604 	orr.w	r6, r1, #4
    26fa:	f947 0ac0 	vst1.64	{d16-d17}, [r7], r0
    26fe:	4630      	mov	r0, r6
    2700:	f002 fc46 	bl	4f90 <EnsureFrontOfChain+0x233c>
    2704:	4a1d      	ldr	r2, [pc, #116]	; (277c <signal+0xd8>)
    2706:	ebc5 01c5 	rsb	r1, r5, r5, lsl #3
    270a:	f04f 50c0 	mov.w	r0, #402653184	; 0x18000000
    270e:	6038      	str	r0, [r7, #0]
    2710:	9400      	str	r4, [sp, #0]
    2712:	447a      	add	r2, pc
    2714:	f812 2031 	ldrb.w	r2, [r2, r1, lsl #3]
    2718:	b17a      	cbz	r2, 273a <signal+0x96>
    271a:	4a19      	ldr	r2, [pc, #100]	; (2780 <signal+0xdc>)
    271c:	447a      	add	r2, pc
    271e:	eb02 07c1 	add.w	r7, r2, r1, lsl #3
    2722:	60b8      	str	r0, [r7, #8]
    2724:	9803      	ldr	r0, [sp, #12]
    2726:	687d      	ldr	r5, [r7, #4]
    2728:	607c      	str	r4, [r7, #4]
    272a:	60f8      	str	r0, [r7, #12]
    272c:	f107 0010 	add.w	r0, r7, #16
    2730:	f002 fbfe 	bl	4f30 <EnsureFrontOfChain+0x22dc>
    2734:	6830      	ldr	r0, [r6, #0]
    2736:	6138      	str	r0, [r7, #16]
    2738:	e00c      	b.n	2754 <signal+0xb0>
    273a:	4812      	ldr	r0, [pc, #72]	; (2784 <signal+0xe0>)
    273c:	4669      	mov	r1, sp
    273e:	460a      	mov	r2, r1
    2740:	4478      	add	r0, pc
    2742:	68c3      	ldr	r3, [r0, #12]
    2744:	4628      	mov	r0, r5
    2746:	4798      	blx	r3
    2748:	3001      	adds	r0, #1
    274a:	d001      	beq.n	2750 <signal+0xac>
    274c:	9d00      	ldr	r5, [sp, #0]
    274e:	e001      	b.n	2754 <signal+0xb0>
    2750:	f04f 35ff 	mov.w	r5, #4294967295	; 0xffffffff
    2754:	480c      	ldr	r0, [pc, #48]	; (2788 <signal+0xe4>)
    2756:	4478      	add	r0, pc
    2758:	6800      	ldr	r0, [r0, #0]
    275a:	6800      	ldr	r0, [r0, #0]
    275c:	9906      	ldr	r1, [sp, #24]
    275e:	1a40      	subs	r0, r0, r1
    2760:	d102      	bne.n	2768 <signal+0xc4>
    2762:	4628      	mov	r0, r5
    2764:	b007      	add	sp, #28
    2766:	bdf0      	pop	{r4, r5, r6, r7, pc}
    2768:	f002 fb2a 	bl	4dc0 <EnsureFrontOfChain+0x216c>
    276c:	480a      	ldr	r0, [pc, #40]	; (2798 <bsd_signal+0xc>)
    276e:	0000      	movs	r0, r0
    2770:	57c4      	ldrsb	r4, [r0, r7]
    2772:	0000      	movs	r0, r0
    2774:	57aa      	ldrsb	r2, [r5, r6]
    2776:	0000      	movs	r0, r0
    2778:	0699      	lsls	r1, r3, #26
    277a:	0000      	movs	r0, r0
    277c:	48f2      	ldr	r0, [pc, #968]	; (2b48 <AddSpecialSignalHandlerFn+0xd8>)
    277e:	0000      	movs	r0, r0
    2780:	48e8      	ldr	r0, [pc, #928]	; (2b24 <AddSpecialSignalHandlerFn+0xb4>)
    2782:	0000      	movs	r0, r0
    2784:	573c      	ldrsb	r4, [r7, r4]
    2786:	0000      	movs	r0, r0
    2788:	4762      	bx	ip
	...

0000278c <bsd_signal>:
    278c:	b5b0      	push	{r4, r5, r7, lr}
    278e:	b084      	sub	sp, #16
    2790:	4605      	mov	r5, r0
    2792:	4813      	ldr	r0, [pc, #76]	; (27e0 <bsd_signal+0x54>)
    2794:	460c      	mov	r4, r1
    2796:	4478      	add	r0, pc
    2798:	6800      	ldr	r0, [r0, #0]
    279a:	6800      	ldr	r0, [r0, #0]
    279c:	9003      	str	r0, [sp, #12]
    279e:	4811      	ldr	r0, [pc, #68]	; (27e4 <bsd_signal+0x58>)
    27a0:	4478      	add	r0, pc
    27a2:	e8d0 0faf 			; <UNDEFINED> instruction: 0xe8d00faf
    27a6:	3001      	adds	r0, #1
    27a8:	d00a      	beq.n	27c0 <bsd_signal+0x34>
    27aa:	4668      	mov	r0, sp
    27ac:	4a0f      	ldr	r2, [pc, #60]	; (27ec <bsd_signal+0x60>)
    27ae:	9002      	str	r0, [sp, #8]
    27b0:	a802      	add	r0, sp, #8
    27b2:	9001      	str	r0, [sp, #4]
    27b4:	480c      	ldr	r0, [pc, #48]	; (27e8 <bsd_signal+0x5c>)
    27b6:	a901      	add	r1, sp, #4
    27b8:	447a      	add	r2, pc
    27ba:	4478      	add	r0, pc
    27bc:	f002 fba8 	bl	4f10 <EnsureFrontOfChain+0x22bc>
    27c0:	4628      	mov	r0, r5
    27c2:	4621      	mov	r1, r4
    27c4:	f7ff ff6e 	bl	26a4 <signal>
    27c8:	4909      	ldr	r1, [pc, #36]	; (27f0 <bsd_signal+0x64>)
    27ca:	4479      	add	r1, pc
    27cc:	6809      	ldr	r1, [r1, #0]
    27ce:	6809      	ldr	r1, [r1, #0]
    27d0:	9a03      	ldr	r2, [sp, #12]
    27d2:	1a89      	subs	r1, r1, r2
    27d4:	d101      	bne.n	27da <bsd_signal+0x4e>
    27d6:	b004      	add	sp, #16
    27d8:	bdb0      	pop	{r4, r5, r7, pc}
    27da:	f002 faf1 	bl	4dc0 <EnsureFrontOfChain+0x216c>
    27de:	bf00      	nop
    27e0:	4722      	bx	r4
    27e2:	0000      	movs	r0, r0
    27e4:	56dc      	ldrsb	r4, [r3, r3]
    27e6:	0000      	movs	r0, r0
    27e8:	56c2      	ldrsb	r2, [r0, r3]
    27ea:	0000      	movs	r0, r0
    27ec:	05b1      	lsls	r1, r6, #22
    27ee:	0000      	movs	r0, r0
    27f0:	46ee      	mov	lr, sp
	...

000027f4 <sigprocmask>:
    27f4:	b570      	push	{r4, r5, r6, lr}
    27f6:	b084      	sub	sp, #16
    27f8:	4606      	mov	r6, r0
    27fa:	4815      	ldr	r0, [pc, #84]	; (2850 <sigprocmask+0x5c>)
    27fc:	4614      	mov	r4, r2
    27fe:	460d      	mov	r5, r1
    2800:	4478      	add	r0, pc
    2802:	6800      	ldr	r0, [r0, #0]
    2804:	6800      	ldr	r0, [r0, #0]
    2806:	9003      	str	r0, [sp, #12]
    2808:	4812      	ldr	r0, [pc, #72]	; (2854 <sigprocmask+0x60>)
    280a:	4478      	add	r0, pc
    280c:	e8d0 0faf 			; <UNDEFINED> instruction: 0xe8d00faf
    2810:	3001      	adds	r0, #1
    2812:	d00a      	beq.n	282a <sigprocmask+0x36>
    2814:	4668      	mov	r0, sp
    2816:	4a11      	ldr	r2, [pc, #68]	; (285c <sigprocmask+0x68>)
    2818:	9002      	str	r0, [sp, #8]
    281a:	a802      	add	r0, sp, #8
    281c:	9001      	str	r0, [sp, #4]
    281e:	480e      	ldr	r0, [pc, #56]	; (2858 <sigprocmask+0x64>)
    2820:	a901      	add	r1, sp, #4
    2822:	447a      	add	r2, pc
    2824:	4478      	add	r0, pc
    2826:	f002 fb73 	bl	4f10 <EnsureFrontOfChain+0x22bc>
    282a:	480d      	ldr	r0, [pc, #52]	; (2860 <sigprocmask+0x6c>)
    282c:	4629      	mov	r1, r5
    282e:	4622      	mov	r2, r4
    2830:	4478      	add	r0, pc
    2832:	6843      	ldr	r3, [r0, #4]
    2834:	4630      	mov	r0, r6
    2836:	f000 f817 	bl	2868 <sigprocmask+0x74>
    283a:	490a      	ldr	r1, [pc, #40]	; (2864 <sigprocmask+0x70>)
    283c:	4479      	add	r1, pc
    283e:	6809      	ldr	r1, [r1, #0]
    2840:	6809      	ldr	r1, [r1, #0]
    2842:	9a03      	ldr	r2, [sp, #12]
    2844:	1a89      	subs	r1, r1, r2
    2846:	d101      	bne.n	284c <sigprocmask+0x58>
    2848:	b004      	add	sp, #16
    284a:	bd70      	pop	{r4, r5, r6, pc}
    284c:	f002 fab8 	bl	4dc0 <EnsureFrontOfChain+0x216c>
    2850:	46b8      	mov	r8, r7
    2852:	0000      	movs	r0, r0
    2854:	5672      	ldrsb	r2, [r6, r1]
    2856:	0000      	movs	r0, r0
    2858:	5658      	ldrsb	r0, [r3, r1]
    285a:	0000      	movs	r0, r0
    285c:	0547      	lsls	r7, r0, #21
    285e:	0000      	movs	r0, r0
    2860:	564c      	ldrsb	r4, [r1, r1]
    2862:	0000      	movs	r0, r0
    2864:	467c      	mov	r4, pc
    2866:	0000      	movs	r0, r0
    2868:	e92d 43f0 	stmdb	sp!, {r4, r5, r6, r7, r8, r9, lr}
    286c:	b085      	sub	sp, #20
    286e:	4606      	mov	r6, r0
    2870:	4828      	ldr	r0, [pc, #160]	; (2914 <sigprocmask+0x120>)
    2872:	4698      	mov	r8, r3
    2874:	4691      	mov	r9, r2
    2876:	460f      	mov	r7, r1
    2878:	4478      	add	r0, pc
    287a:	6800      	ldr	r0, [r0, #0]
    287c:	6800      	ldr	r0, [r0, #0]
    287e:	9004      	str	r0, [sp, #16]
    2880:	4825      	ldr	r0, [pc, #148]	; (2918 <sigprocmask+0x124>)
    2882:	4478      	add	r0, pc
    2884:	3018      	adds	r0, #24
    2886:	e8d0 0faf 			; <UNDEFINED> instruction: 0xe8d00faf
    288a:	3001      	adds	r0, #1
    288c:	d00b      	beq.n	28a6 <sigprocmask+0xb2>
    288e:	a801      	add	r0, sp, #4
    2890:	4a23      	ldr	r2, [pc, #140]	; (2920 <sigprocmask+0x12c>)
    2892:	9003      	str	r0, [sp, #12]
    2894:	a803      	add	r0, sp, #12
    2896:	9002      	str	r0, [sp, #8]
    2898:	4820      	ldr	r0, [pc, #128]	; (291c <sigprocmask+0x128>)
    289a:	a902      	add	r1, sp, #8
    289c:	447a      	add	r2, pc
    289e:	4478      	add	r0, pc
    28a0:	3018      	adds	r0, #24
    28a2:	f002 fb35 	bl	4f10 <EnsureFrontOfChain+0x22bc>
    28a6:	481f      	ldr	r0, [pc, #124]	; (2924 <sigprocmask+0x130>)
    28a8:	4478      	add	r0, pc
    28aa:	6940      	ldr	r0, [r0, #20]
    28ac:	f002 fb38 	bl	4f20 <EnsureFrontOfChain+0x22cc>
    28b0:	b168      	cbz	r0, 28ce <sigprocmask+0xda>
    28b2:	4630      	mov	r0, r6
    28b4:	4639      	mov	r1, r7
    28b6:	464a      	mov	r2, r9
    28b8:	47c0      	blx	r8
    28ba:	491c      	ldr	r1, [pc, #112]	; (292c <sigprocmask+0x138>)
    28bc:	4479      	add	r1, pc
    28be:	6809      	ldr	r1, [r1, #0]
    28c0:	6809      	ldr	r1, [r1, #0]
    28c2:	9a04      	ldr	r2, [sp, #16]
    28c4:	1a89      	subs	r1, r1, r2
    28c6:	d123      	bne.n	2910 <sigprocmask+0x11c>
    28c8:	b005      	add	sp, #20
    28ca:	e8bd 83f0 	ldmia.w	sp!, {r4, r5, r6, r7, r8, r9, pc}
    28ce:	b1df      	cbz	r7, 2908 <sigprocmask+0x114>
    28d0:	6838      	ldr	r0, [r7, #0]
    28d2:	9003      	str	r0, [sp, #12]
    28d4:	f046 0002 	orr.w	r0, r6, #2
    28d8:	2802      	cmp	r0, #2
    28da:	d117      	bne.n	290c <sigprocmask+0x118>
    28dc:	4812      	ldr	r0, [pc, #72]	; (2928 <sigprocmask+0x134>)
    28de:	2401      	movs	r4, #1
    28e0:	af03      	add	r7, sp, #12
    28e2:	4478      	add	r0, pc
    28e4:	f100 0538 	add.w	r5, r0, #56	; 0x38
    28e8:	7828      	ldrb	r0, [r5, #0]
    28ea:	b140      	cbz	r0, 28fe <sigprocmask+0x10a>
    28ec:	4638      	mov	r0, r7
    28ee:	4621      	mov	r1, r4
    28f0:	f002 fb56 	bl	4fa0 <EnsureFrontOfChain+0x234c>
    28f4:	b118      	cbz	r0, 28fe <sigprocmask+0x10a>
    28f6:	4638      	mov	r0, r7
    28f8:	4621      	mov	r1, r4
    28fa:	f002 fb59 	bl	4fb0 <EnsureFrontOfChain+0x235c>
    28fe:	3538      	adds	r5, #56	; 0x38
    2900:	3401      	adds	r4, #1
    2902:	2c41      	cmp	r4, #65	; 0x41
    2904:	d1f0      	bne.n	28e8 <sigprocmask+0xf4>
    2906:	e7d4      	b.n	28b2 <sigprocmask+0xbe>
    2908:	2700      	movs	r7, #0
    290a:	e7d2      	b.n	28b2 <sigprocmask+0xbe>
    290c:	af03      	add	r7, sp, #12
    290e:	e7d0      	b.n	28b2 <sigprocmask+0xbe>
    2910:	f002 fa56 	bl	4dc0 <EnsureFrontOfChain+0x216c>
    2914:	4640      	mov	r0, r8
    2916:	0000      	movs	r0, r0
    2918:	55fa      	strb	r2, [r7, r7]
    291a:	0000      	movs	r0, r0
    291c:	55de      	strb	r6, [r3, r7]
    291e:	0000      	movs	r0, r0
    2920:	04a1      	lsls	r1, r4, #18
    2922:	0000      	movs	r0, r0
    2924:	55d4      	strb	r4, [r2, r7]
    2926:	0000      	movs	r0, r0
    2928:	4722      	bx	r4
    292a:	0000      	movs	r0, r0
    292c:	45fc      	cmp	ip, pc
	...

00002930 <sigprocmask64>:
    2930:	b570      	push	{r4, r5, r6, lr}
    2932:	b084      	sub	sp, #16
    2934:	4606      	mov	r6, r0
    2936:	4815      	ldr	r0, [pc, #84]	; (298c <sigprocmask64+0x5c>)
    2938:	4614      	mov	r4, r2
    293a:	460d      	mov	r5, r1
    293c:	4478      	add	r0, pc
    293e:	6800      	ldr	r0, [r0, #0]
    2940:	6800      	ldr	r0, [r0, #0]
    2942:	9003      	str	r0, [sp, #12]
    2944:	4812      	ldr	r0, [pc, #72]	; (2990 <sigprocmask64+0x60>)
    2946:	4478      	add	r0, pc
    2948:	e8d0 0faf 			; <UNDEFINED> instruction: 0xe8d00faf
    294c:	3001      	adds	r0, #1
    294e:	d00a      	beq.n	2966 <sigprocmask64+0x36>
    2950:	4668      	mov	r0, sp
    2952:	4a11      	ldr	r2, [pc, #68]	; (2998 <sigprocmask64+0x68>)
    2954:	9002      	str	r0, [sp, #8]
    2956:	a802      	add	r0, sp, #8
    2958:	9001      	str	r0, [sp, #4]
    295a:	480e      	ldr	r0, [pc, #56]	; (2994 <sigprocmask64+0x64>)
    295c:	a901      	add	r1, sp, #4
    295e:	447a      	add	r2, pc
    2960:	4478      	add	r0, pc
    2962:	f002 fad5 	bl	4f10 <EnsureFrontOfChain+0x22bc>
    2966:	480d      	ldr	r0, [pc, #52]	; (299c <sigprocmask64+0x6c>)
    2968:	4629      	mov	r1, r5
    296a:	4622      	mov	r2, r4
    296c:	4478      	add	r0, pc
    296e:	6883      	ldr	r3, [r0, #8]
    2970:	4630      	mov	r0, r6
    2972:	f000 f817 	bl	29a4 <sigprocmask64+0x74>
    2976:	490a      	ldr	r1, [pc, #40]	; (29a0 <sigprocmask64+0x70>)
    2978:	4479      	add	r1, pc
    297a:	6809      	ldr	r1, [r1, #0]
    297c:	6809      	ldr	r1, [r1, #0]
    297e:	9a03      	ldr	r2, [sp, #12]
    2980:	1a89      	subs	r1, r1, r2
    2982:	d101      	bne.n	2988 <sigprocmask64+0x58>
    2984:	b004      	add	sp, #16
    2986:	bd70      	pop	{r4, r5, r6, pc}
    2988:	f002 fa1a 	bl	4dc0 <EnsureFrontOfChain+0x216c>
    298c:	457c      	cmp	r4, pc
    298e:	0000      	movs	r0, r0
    2990:	5536      	strb	r6, [r6, r4]
    2992:	0000      	movs	r0, r0
    2994:	551c      	strb	r4, [r3, r4]
    2996:	0000      	movs	r0, r0
    2998:	040b      	lsls	r3, r1, #16
    299a:	0000      	movs	r0, r0
    299c:	5510      	strb	r0, [r2, r4]
    299e:	0000      	movs	r0, r0
    29a0:	4540      	cmp	r0, r8
    29a2:	0000      	movs	r0, r0
    29a4:	e92d 43f0 	stmdb	sp!, {r4, r5, r6, r7, r8, r9, lr}
    29a8:	b085      	sub	sp, #20
    29aa:	4606      	mov	r6, r0
    29ac:	4829      	ldr	r0, [pc, #164]	; (2a54 <sigprocmask64+0x124>)
    29ae:	4698      	mov	r8, r3
    29b0:	4691      	mov	r9, r2
    29b2:	460f      	mov	r7, r1
    29b4:	4478      	add	r0, pc
    29b6:	6800      	ldr	r0, [r0, #0]
    29b8:	6800      	ldr	r0, [r0, #0]
    29ba:	9004      	str	r0, [sp, #16]
    29bc:	4826      	ldr	r0, [pc, #152]	; (2a58 <sigprocmask64+0x128>)
    29be:	4478      	add	r0, pc
    29c0:	3018      	adds	r0, #24
    29c2:	e8d0 0faf 			; <UNDEFINED> instruction: 0xe8d00faf
    29c6:	3001      	adds	r0, #1
    29c8:	d00b      	beq.n	29e2 <sigprocmask64+0xb2>
    29ca:	a802      	add	r0, sp, #8
    29cc:	4a24      	ldr	r2, [pc, #144]	; (2a60 <sigprocmask64+0x130>)
    29ce:	9000      	str	r0, [sp, #0]
    29d0:	4668      	mov	r0, sp
    29d2:	9003      	str	r0, [sp, #12]
    29d4:	4821      	ldr	r0, [pc, #132]	; (2a5c <sigprocmask64+0x12c>)
    29d6:	a903      	add	r1, sp, #12
    29d8:	447a      	add	r2, pc
    29da:	4478      	add	r0, pc
    29dc:	3018      	adds	r0, #24
    29de:	f002 fa97 	bl	4f10 <EnsureFrontOfChain+0x22bc>
    29e2:	4820      	ldr	r0, [pc, #128]	; (2a64 <sigprocmask64+0x134>)
    29e4:	4478      	add	r0, pc
    29e6:	6940      	ldr	r0, [r0, #20]
    29e8:	f002 fa9a 	bl	4f20 <EnsureFrontOfChain+0x22cc>
    29ec:	b168      	cbz	r0, 2a0a <sigprocmask64+0xda>
    29ee:	4630      	mov	r0, r6
    29f0:	4639      	mov	r1, r7
    29f2:	464a      	mov	r2, r9
    29f4:	47c0      	blx	r8
    29f6:	491d      	ldr	r1, [pc, #116]	; (2a6c <sigprocmask64+0x13c>)
    29f8:	4479      	add	r1, pc
    29fa:	6809      	ldr	r1, [r1, #0]
    29fc:	6809      	ldr	r1, [r1, #0]
    29fe:	9a04      	ldr	r2, [sp, #16]
    2a00:	1a89      	subs	r1, r1, r2
    2a02:	d125      	bne.n	2a50 <sigprocmask64+0x120>
    2a04:	b005      	add	sp, #20
    2a06:	e8bd 83f0 	ldmia.w	sp!, {r4, r5, r6, r7, r8, r9, pc}
    2a0a:	b1ef      	cbz	r7, 2a48 <sigprocmask64+0x118>
    2a0c:	e9d7 0100 	ldrd	r0, r1, [r7]
    2a10:	e9cd 0100 	strd	r0, r1, [sp]
    2a14:	f046 0002 	orr.w	r0, r6, #2
    2a18:	2802      	cmp	r0, #2
    2a1a:	d117      	bne.n	2a4c <sigprocmask64+0x11c>
    2a1c:	4812      	ldr	r0, [pc, #72]	; (2a68 <sigprocmask64+0x138>)
    2a1e:	2401      	movs	r4, #1
    2a20:	466f      	mov	r7, sp
    2a22:	4478      	add	r0, pc
    2a24:	f100 0538 	add.w	r5, r0, #56	; 0x38
    2a28:	7828      	ldrb	r0, [r5, #0]
    2a2a:	b140      	cbz	r0, 2a3e <sigprocmask64+0x10e>
    2a2c:	4638      	mov	r0, r7
    2a2e:	4621      	mov	r1, r4
    2a30:	f002 fa86 	bl	4f40 <EnsureFrontOfChain+0x22ec>
    2a34:	b118      	cbz	r0, 2a3e <sigprocmask64+0x10e>
    2a36:	4638      	mov	r0, r7
    2a38:	4621      	mov	r1, r4
    2a3a:	f002 fac1 	bl	4fc0 <EnsureFrontOfChain+0x236c>
    2a3e:	3538      	adds	r5, #56	; 0x38
    2a40:	3401      	adds	r4, #1
    2a42:	2c41      	cmp	r4, #65	; 0x41
    2a44:	d1f0      	bne.n	2a28 <sigprocmask64+0xf8>
    2a46:	e7d2      	b.n	29ee <sigprocmask64+0xbe>
    2a48:	2700      	movs	r7, #0
    2a4a:	e7d0      	b.n	29ee <sigprocmask64+0xbe>
    2a4c:	466f      	mov	r7, sp
    2a4e:	e7ce      	b.n	29ee <sigprocmask64+0xbe>
    2a50:	f002 f9b6 	bl	4dc0 <EnsureFrontOfChain+0x216c>
    2a54:	4504      	cmp	r4, r0
    2a56:	0000      	movs	r0, r0
    2a58:	54be      	strb	r6, [r7, r2]
    2a5a:	0000      	movs	r0, r0
    2a5c:	54a2      	strb	r2, [r4, r2]
    2a5e:	0000      	movs	r0, r0
    2a60:	0365      	lsls	r5, r4, #13
    2a62:	0000      	movs	r0, r0
    2a64:	5498      	strb	r0, [r3, r2]
    2a66:	0000      	movs	r0, r0
    2a68:	45e2      	cmp	sl, ip
    2a6a:	0000      	movs	r0, r0
    2a6c:	44c0      	add	r8, r8
	...

00002a70 <AddSpecialSignalHandlerFn>:
    2a70:	b5f0      	push	{r4, r5, r6, r7, lr}
    2a72:	b089      	sub	sp, #36	; 0x24
    2a74:	4604      	mov	r4, r0
    2a76:	4836      	ldr	r0, [pc, #216]	; (2b50 <AddSpecialSignalHandlerFn+0xe0>)
    2a78:	460d      	mov	r5, r1
    2a7a:	4478      	add	r0, pc
    2a7c:	6800      	ldr	r0, [r0, #0]
    2a7e:	6800      	ldr	r0, [r0, #0]
    2a80:	9008      	str	r0, [sp, #32]
    2a82:	4834      	ldr	r0, [pc, #208]	; (2b54 <AddSpecialSignalHandlerFn+0xe4>)
    2a84:	4478      	add	r0, pc
    2a86:	e8d0 0faf 			; <UNDEFINED> instruction: 0xe8d00faf
    2a8a:	3001      	adds	r0, #1
    2a8c:	d00a      	beq.n	2aa4 <AddSpecialSignalHandlerFn+0x34>
    2a8e:	4668      	mov	r0, sp
    2a90:	4a32      	ldr	r2, [pc, #200]	; (2b5c <AddSpecialSignalHandlerFn+0xec>)
    2a92:	9002      	str	r0, [sp, #8]
    2a94:	a802      	add	r0, sp, #8
    2a96:	9001      	str	r0, [sp, #4]
    2a98:	482f      	ldr	r0, [pc, #188]	; (2b58 <AddSpecialSignalHandlerFn+0xe8>)
    2a9a:	a901      	add	r1, sp, #4
    2a9c:	447a      	add	r2, pc
    2a9e:	4478      	add	r0, pc
    2aa0:	f002 fa36 	bl	4f10 <EnsureFrontOfChain+0x22bc>
    2aa4:	1e60      	subs	r0, r4, #1
    2aa6:	2840      	cmp	r0, #64	; 0x40
    2aa8:	d244      	bcs.n	2b34 <AddSpecialSignalHandlerFn+0xc4>
    2aaa:	482d      	ldr	r0, [pc, #180]	; (2b60 <AddSpecialSignalHandlerFn+0xf0>)
    2aac:	ebc4 06c4 	rsb	r6, r4, r4, lsl #3
    2ab0:	4478      	add	r0, pc
    2ab2:	eb00 00c6 	add.w	r0, r0, r6, lsl #3
    2ab6:	f850 1f18 	ldr.w	r1, [r0, #24]!
    2aba:	b131      	cbz	r1, 2aca <AddSpecialSignalHandlerFn+0x5a>
    2abc:	4829      	ldr	r0, [pc, #164]	; (2b64 <AddSpecialSignalHandlerFn+0xf4>)
    2abe:	4478      	add	r0, pc
    2ac0:	eb00 00c6 	add.w	r0, r0, r6, lsl #3
    2ac4:	f850 1f28 	ldr.w	r1, [r0, #40]!
    2ac8:	bbd9      	cbnz	r1, 2b42 <AddSpecialSignalHandlerFn+0xd2>
    2aca:	f965 0acf 	vld1.64	{d16-d17}, [r5]
    2ace:	f940 0acf 	vst1.64	{d16-d17}, [r0]
    2ad2:	4826      	ldr	r0, [pc, #152]	; (2b6c <AddSpecialSignalHandlerFn+0xfc>)
    2ad4:	4478      	add	r0, pc
    2ad6:	f810 1036 	ldrb.w	r1, [r0, r6, lsl #3]
    2ada:	bb01      	cbnz	r1, 2b1e <AddSpecialSignalHandlerFn+0xae>
    2adc:	eb00 07c6 	add.w	r7, r0, r6, lsl #3
    2ae0:	2000      	movs	r0, #0
    2ae2:	efc0 0050 	vmov.i32	q8, #0	; 0x00000000
    2ae6:	210c      	movs	r1, #12
    2ae8:	9006      	str	r0, [sp, #24]
    2aea:	ad02      	add	r5, sp, #8
    2aec:	4628      	mov	r0, r5
    2aee:	f940 0ac1 	vst1.64	{d16-d17}, [r0], r1
    2af2:	f002 fa6d 	bl	4fd0 <EnsureFrontOfChain+0x237c>
    2af6:	481e      	ldr	r0, [pc, #120]	; (2b70 <AddSpecialSignalHandlerFn+0x100>)
    2af8:	4629      	mov	r1, r5
    2afa:	4478      	add	r0, pc
    2afc:	9002      	str	r0, [sp, #8]
    2afe:	2004      	movs	r0, #4
    2b00:	f6c1 0000 	movt	r0, #6144	; 0x1800
    2b04:	9003      	str	r0, [sp, #12]
    2b06:	481b      	ldr	r0, [pc, #108]	; (2b74 <AddSpecialSignalHandlerFn+0x104>)
    2b08:	4478      	add	r0, pc
    2b0a:	eb00 00c6 	add.w	r0, r0, r6, lsl #3
    2b0e:	1d02      	adds	r2, r0, #4
    2b10:	4819      	ldr	r0, [pc, #100]	; (2b78 <AddSpecialSignalHandlerFn+0x108>)
    2b12:	4478      	add	r0, pc
    2b14:	6903      	ldr	r3, [r0, #16]
    2b16:	4620      	mov	r0, r4
    2b18:	4798      	blx	r3
    2b1a:	2001      	movs	r0, #1
    2b1c:	7038      	strb	r0, [r7, #0]
    2b1e:	4817      	ldr	r0, [pc, #92]	; (2b7c <AddSpecialSignalHandlerFn+0x10c>)
    2b20:	4478      	add	r0, pc
    2b22:	6800      	ldr	r0, [r0, #0]
    2b24:	6800      	ldr	r0, [r0, #0]
    2b26:	9908      	ldr	r1, [sp, #32]
    2b28:	1a40      	subs	r0, r0, r1
    2b2a:	d101      	bne.n	2b30 <AddSpecialSignalHandlerFn+0xc0>
    2b2c:	b009      	add	sp, #36	; 0x24
    2b2e:	bdf0      	pop	{r4, r5, r6, r7, pc}
    2b30:	f002 f946 	bl	4dc0 <EnsureFrontOfChain+0x216c>
    2b34:	4812      	ldr	r0, [pc, #72]	; (2b80 <AddSpecialSignalHandlerFn+0x110>)
    2b36:	4621      	mov	r1, r4
    2b38:	4478      	add	r0, pc
    2b3a:	f7ff fc97 	bl	246c <dl_iterate_phdr@plt+0xd40>
    2b3e:	f002 fa17 	bl	4f70 <EnsureFrontOfChain+0x231c>
    2b42:	4809      	ldr	r0, [pc, #36]	; (2b68 <AddSpecialSignalHandlerFn+0xf8>)
    2b44:	4478      	add	r0, pc
    2b46:	f7ff fc91 	bl	246c <dl_iterate_phdr@plt+0xd40>
    2b4a:	f002 fa11 	bl	4f70 <EnsureFrontOfChain+0x231c>
    2b4e:	bf00      	nop
    2b50:	443e      	add	r6, r7
    2b52:	0000      	movs	r0, r0
    2b54:	53f8      	strh	r0, [r7, r7]
    2b56:	0000      	movs	r0, r0
    2b58:	53de      	strh	r6, [r3, r7]
    2b5a:	0000      	movs	r0, r0
    2b5c:	02cd      	lsls	r5, r1, #11
    2b5e:	0000      	movs	r0, r0
    2b60:	4554      	cmp	r4, sl
    2b62:	0000      	movs	r0, r0
    2b64:	4546      	cmp	r6, r8
    2b66:	0000      	movs	r0, r0
    2b68:	2bd3      	cmp	r3, #211	; 0xd3
    2b6a:	0000      	movs	r0, r0
    2b6c:	4530      	cmp	r0, r6
    2b6e:	0000      	movs	r0, r0
    2b70:	f5e3 ffff 	bl	ffde6b72 <EnsureFrontOfChain+0xffde3f1e>
    2b74:	44fc      	add	ip, pc
    2b76:	0000      	movs	r0, r0
    2b78:	536a      	strh	r2, [r5, r5]
    2b7a:	0000      	movs	r0, r0
    2b7c:	4398      	bics	r0, r3
    2b7e:	0000      	movs	r0, r0
    2b80:	2b68      	cmp	r3, #104	; 0x68
	...

00002b84 <RemoveSpecialSignalHandlerFn>:
    2b84:	b5b0      	push	{r4, r5, r7, lr}
    2b86:	b084      	sub	sp, #16
    2b88:	4605      	mov	r5, r0
    2b8a:	4828      	ldr	r0, [pc, #160]	; (2c2c <RemoveSpecialSignalHandlerFn+0xa8>)
    2b8c:	460c      	mov	r4, r1
    2b8e:	4478      	add	r0, pc
    2b90:	6800      	ldr	r0, [r0, #0]
    2b92:	6800      	ldr	r0, [r0, #0]
    2b94:	9003      	str	r0, [sp, #12]
    2b96:	4826      	ldr	r0, [pc, #152]	; (2c30 <RemoveSpecialSignalHandlerFn+0xac>)
    2b98:	4478      	add	r0, pc
    2b9a:	e8d0 0faf 			; <UNDEFINED> instruction: 0xe8d00faf
    2b9e:	3001      	adds	r0, #1
    2ba0:	d00a      	beq.n	2bb8 <RemoveSpecialSignalHandlerFn+0x34>
    2ba2:	4668      	mov	r0, sp
    2ba4:	4a24      	ldr	r2, [pc, #144]	; (2c38 <RemoveSpecialSignalHandlerFn+0xb4>)
    2ba6:	9002      	str	r0, [sp, #8]
    2ba8:	a802      	add	r0, sp, #8
    2baa:	9001      	str	r0, [sp, #4]
    2bac:	4821      	ldr	r0, [pc, #132]	; (2c34 <RemoveSpecialSignalHandlerFn+0xb0>)
    2bae:	a901      	add	r1, sp, #4
    2bb0:	447a      	add	r2, pc
    2bb2:	4478      	add	r0, pc
    2bb4:	f002 f9ac 	bl	4f10 <EnsureFrontOfChain+0x22bc>
    2bb8:	1e68      	subs	r0, r5, #1
    2bba:	2840      	cmp	r0, #64	; 0x40
    2bbc:	d22e      	bcs.n	2c1c <RemoveSpecialSignalHandlerFn+0x98>
    2bbe:	491f      	ldr	r1, [pc, #124]	; (2c3c <RemoveSpecialSignalHandlerFn+0xb8>)
    2bc0:	ebc5 00c5 	rsb	r0, r5, r5, lsl #3
    2bc4:	4479      	add	r1, pc
    2bc6:	eb01 01c0 	add.w	r1, r1, r0, lsl #3
    2bca:	6989      	ldr	r1, [r1, #24]
    2bcc:	42a1      	cmp	r1, r4
    2bce:	d00d      	beq.n	2bec <RemoveSpecialSignalHandlerFn+0x68>
    2bd0:	491b      	ldr	r1, [pc, #108]	; (2c40 <RemoveSpecialSignalHandlerFn+0xbc>)
    2bd2:	4479      	add	r1, pc
    2bd4:	eb01 00c0 	add.w	r0, r1, r0, lsl #3
    2bd8:	f850 1f28 	ldr.w	r1, [r0, #40]!
    2bdc:	42a1      	cmp	r1, r4
    2bde:	d010      	beq.n	2c02 <RemoveSpecialSignalHandlerFn+0x7e>
    2be0:	4818      	ldr	r0, [pc, #96]	; (2c44 <RemoveSpecialSignalHandlerFn+0xc0>)
    2be2:	4478      	add	r0, pc
    2be4:	f7ff fc42 	bl	246c <dl_iterate_phdr@plt+0xd40>
    2be8:	f002 f9c2 	bl	4f70 <EnsureFrontOfChain+0x231c>
    2bec:	4916      	ldr	r1, [pc, #88]	; (2c48 <RemoveSpecialSignalHandlerFn+0xc4>)
    2bee:	4479      	add	r1, pc
    2bf0:	eb01 01c0 	add.w	r1, r1, r0, lsl #3
    2bf4:	f101 0028 	add.w	r0, r1, #40	; 0x28
    2bf8:	3118      	adds	r1, #24
    2bfa:	f960 0acf 	vld1.64	{d16-d17}, [r0]
    2bfe:	f941 0acf 	vst1.64	{d16-d17}, [r1]
    2c02:	2100      	movs	r1, #0
    2c04:	6001      	str	r1, [r0, #0]
    2c06:	4811      	ldr	r0, [pc, #68]	; (2c4c <RemoveSpecialSignalHandlerFn+0xc8>)
    2c08:	4478      	add	r0, pc
    2c0a:	6800      	ldr	r0, [r0, #0]
    2c0c:	6800      	ldr	r0, [r0, #0]
    2c0e:	9903      	ldr	r1, [sp, #12]
    2c10:	1a40      	subs	r0, r0, r1
    2c12:	d101      	bne.n	2c18 <RemoveSpecialSignalHandlerFn+0x94>
    2c14:	b004      	add	sp, #16
    2c16:	bdb0      	pop	{r4, r5, r7, pc}
    2c18:	f002 f8d2 	bl	4dc0 <EnsureFrontOfChain+0x216c>
    2c1c:	480c      	ldr	r0, [pc, #48]	; (2c50 <RemoveSpecialSignalHandlerFn+0xcc>)
    2c1e:	4629      	mov	r1, r5
    2c20:	4478      	add	r0, pc
    2c22:	f7ff fc23 	bl	246c <dl_iterate_phdr@plt+0xd40>
    2c26:	f002 f9a3 	bl	4f70 <EnsureFrontOfChain+0x231c>
    2c2a:	bf00      	nop
    2c2c:	432a      	orrs	r2, r5
    2c2e:	0000      	movs	r0, r0
    2c30:	52e4      	strh	r4, [r4, r3]
    2c32:	0000      	movs	r0, r0
    2c34:	52ca      	strh	r2, [r1, r3]
    2c36:	0000      	movs	r0, r0
    2c38:	01b9      	lsls	r1, r7, #6
    2c3a:	0000      	movs	r0, r0
    2c3c:	4440      	add	r0, r8
    2c3e:	0000      	movs	r0, r0
    2c40:	4432      	add	r2, r6
    2c42:	0000      	movs	r0, r0
    2c44:	2b56      	cmp	r3, #86	; 0x56
    2c46:	0000      	movs	r0, r0
    2c48:	4416      	add	r6, r2
    2c4a:	0000      	movs	r0, r0
    2c4c:	42b0      	cmp	r0, r6
    2c4e:	0000      	movs	r0, r0
    2c50:	2a80      	cmp	r2, #128	; 0x80
	...

00002c54 <EnsureFrontOfChain>:
    2c54:	b5b0      	push	{r4, r5, r7, lr}
    2c56:	b08c      	sub	sp, #48	; 0x30
    2c58:	4604      	mov	r4, r0
    2c5a:	482d      	ldr	r0, [pc, #180]	; (2d10 <EnsureFrontOfChain+0xbc>)
    2c5c:	4478      	add	r0, pc
    2c5e:	6800      	ldr	r0, [r0, #0]
    2c60:	6800      	ldr	r0, [r0, #0]
    2c62:	900b      	str	r0, [sp, #44]	; 0x2c
    2c64:	482b      	ldr	r0, [pc, #172]	; (2d14 <EnsureFrontOfChain+0xc0>)
    2c66:	4478      	add	r0, pc
    2c68:	e8d0 0faf 			; <UNDEFINED> instruction: 0xe8d00faf
    2c6c:	3001      	adds	r0, #1
    2c6e:	d00a      	beq.n	2c86 <EnsureFrontOfChain+0x32>
    2c70:	4668      	mov	r0, sp
    2c72:	4a2a      	ldr	r2, [pc, #168]	; (2d1c <EnsureFrontOfChain+0xc8>)
    2c74:	9006      	str	r0, [sp, #24]
    2c76:	a806      	add	r0, sp, #24
    2c78:	9001      	str	r0, [sp, #4]
    2c7a:	4827      	ldr	r0, [pc, #156]	; (2d18 <EnsureFrontOfChain+0xc4>)
    2c7c:	a901      	add	r1, sp, #4
    2c7e:	447a      	add	r2, pc
    2c80:	4478      	add	r0, pc
    2c82:	f002 f945 	bl	4f10 <EnsureFrontOfChain+0x22bc>
    2c86:	1e60      	subs	r0, r4, #1
    2c88:	2840      	cmp	r0, #64	; 0x40
    2c8a:	d239      	bcs.n	2d00 <EnsureFrontOfChain+0xac>
    2c8c:	4824      	ldr	r0, [pc, #144]	; (2d20 <EnsureFrontOfChain+0xcc>)
    2c8e:	2100      	movs	r1, #0
    2c90:	2500      	movs	r5, #0
    2c92:	4478      	add	r0, pc
    2c94:	6903      	ldr	r3, [r0, #16]
    2c96:	aa01      	add	r2, sp, #4
    2c98:	4620      	mov	r0, r4
    2c9a:	4798      	blx	r3
    2c9c:	4821      	ldr	r0, [pc, #132]	; (2d24 <EnsureFrontOfChain+0xd0>)
    2c9e:	9901      	ldr	r1, [sp, #4]
    2ca0:	4478      	add	r0, pc
    2ca2:	4281      	cmp	r1, r0
    2ca4:	d021      	beq.n	2cea <EnsureFrontOfChain+0x96>
    2ca6:	4820      	ldr	r0, [pc, #128]	; (2d28 <EnsureFrontOfChain+0xd4>)
    2ca8:	4478      	add	r0, pc
    2caa:	f7ff fbdf 	bl	246c <dl_iterate_phdr@plt+0xd40>
    2cae:	950a      	str	r5, [sp, #40]	; 0x28
    2cb0:	ad06      	add	r5, sp, #24
    2cb2:	efc0 0050 	vmov.i32	q8, #0	; 0x00000000
    2cb6:	210c      	movs	r1, #12
    2cb8:	4628      	mov	r0, r5
    2cba:	f940 0ac1 	vst1.64	{d16-d17}, [r0], r1
    2cbe:	f002 f987 	bl	4fd0 <EnsureFrontOfChain+0x237c>
    2cc2:	481a      	ldr	r0, [pc, #104]	; (2d2c <EnsureFrontOfChain+0xd8>)
    2cc4:	491a      	ldr	r1, [pc, #104]	; (2d30 <EnsureFrontOfChain+0xdc>)
    2cc6:	4478      	add	r0, pc
    2cc8:	4479      	add	r1, pc
    2cca:	9006      	str	r0, [sp, #24]
    2ccc:	2004      	movs	r0, #4
    2cce:	f6c1 0000 	movt	r0, #6144	; 0x1800
    2cd2:	9007      	str	r0, [sp, #28]
    2cd4:	ebc4 00c4 	rsb	r0, r4, r4, lsl #3
    2cd8:	eb01 00c0 	add.w	r0, r1, r0, lsl #3
    2cdc:	4629      	mov	r1, r5
    2cde:	1d02      	adds	r2, r0, #4
    2ce0:	4814      	ldr	r0, [pc, #80]	; (2d34 <EnsureFrontOfChain+0xe0>)
    2ce2:	4478      	add	r0, pc
    2ce4:	6903      	ldr	r3, [r0, #16]
    2ce6:	4620      	mov	r0, r4
    2ce8:	4798      	blx	r3
    2cea:	4813      	ldr	r0, [pc, #76]	; (2d38 <EnsureFrontOfChain+0xe4>)
    2cec:	4478      	add	r0, pc
    2cee:	6800      	ldr	r0, [r0, #0]
    2cf0:	6800      	ldr	r0, [r0, #0]
    2cf2:	990b      	ldr	r1, [sp, #44]	; 0x2c
    2cf4:	1a40      	subs	r0, r0, r1
    2cf6:	d101      	bne.n	2cfc <EnsureFrontOfChain+0xa8>
    2cf8:	b00c      	add	sp, #48	; 0x30
    2cfa:	bdb0      	pop	{r4, r5, r7, pc}
    2cfc:	f002 f860 	bl	4dc0 <EnsureFrontOfChain+0x216c>
    2d00:	480e      	ldr	r0, [pc, #56]	; (2d3c <EnsureFrontOfChain+0xe8>)
    2d02:	4621      	mov	r1, r4
    2d04:	4478      	add	r0, pc
    2d06:	f7ff fbb1 	bl	246c <dl_iterate_phdr@plt+0xd40>
    2d0a:	f002 f931 	bl	4f70 <EnsureFrontOfChain+0x231c>
    2d0e:	bf00      	nop
    2d10:	425c      	negs	r4, r3
    2d12:	0000      	movs	r0, r0
    2d14:	5216      	strh	r6, [r2, r0]
    2d16:	0000      	movs	r0, r0
    2d18:	51fc      	str	r4, [r7, r7]
    2d1a:	0000      	movs	r0, r0
    2d1c:	00eb      	lsls	r3, r5, #3
    2d1e:	0000      	movs	r0, r0
    2d20:	51ea      	str	r2, [r5, r7]
    2d22:	0000      	movs	r0, r0
    2d24:	f43d ffff 	bl	ffc40d26 <EnsureFrontOfChain+0xffc3e0d2>
    2d28:	2a0a      	cmp	r2, #10
    2d2a:	0000      	movs	r0, r0
    2d2c:	f417 ffff 	bl	ffc1ad2e <EnsureFrontOfChain+0xffc180da>
    2d30:	433c      	orrs	r4, r7
    2d32:	0000      	movs	r0, r0
    2d34:	519a      	str	r2, [r3, r6]
    2d36:	0000      	movs	r0, r0
    2d38:	41cc      	rors	r4, r1
    2d3a:	0000      	movs	r0, r0
    2d3c:	299c      	cmp	r1, #156	; 0x9c
    2d3e:	0000      	movs	r0, r0
    2d40:	b580      	push	{r7, lr}
    2d42:	4808      	ldr	r0, [pc, #32]	; (2d64 <EnsureFrontOfChain+0x110>)
    2d44:	2100      	movs	r1, #0
    2d46:	4478      	add	r0, pc
    2d48:	3014      	adds	r0, #20
    2d4a:	f002 f949 	bl	4fe0 <EnsureFrontOfChain+0x238c>
    2d4e:	b900      	cbnz	r0, 2d52 <EnsureFrontOfChain+0xfe>
    2d50:	bd80      	pop	{r7, pc}
    2d52:	f002 f84d 	bl	4df0 <EnsureFrontOfChain+0x219c>
    2d56:	4601      	mov	r1, r0
    2d58:	4803      	ldr	r0, [pc, #12]	; (2d68 <EnsureFrontOfChain+0x114>)
    2d5a:	4478      	add	r0, pc
    2d5c:	f7ff fb86 	bl	246c <dl_iterate_phdr@plt+0xd40>
    2d60:	f002 f906 	bl	4f70 <EnsureFrontOfChain+0x231c>
    2d64:	5136      	str	r6, [r6, r4]
    2d66:	0000      	movs	r0, r0
    2d68:	2987      	cmp	r1, #135	; 0x87
    2d6a:	0000      	movs	r0, r0
    2d6c:	b580      	push	{r7, lr}
    2d6e:	493e      	ldr	r1, [pc, #248]	; (2e68 <EnsureFrontOfChain+0x214>)
    2d70:	f06f 0001 	mvn.w	r0, #1
    2d74:	4479      	add	r1, pc
    2d76:	f002 f93b 	bl	4ff0 <EnsureFrontOfChain+0x239c>
    2d7a:	b948      	cbnz	r0, 2d90 <EnsureFrontOfChain+0x13c>
    2d7c:	493b      	ldr	r1, [pc, #236]	; (2e6c <EnsureFrontOfChain+0x218>)
    2d7e:	f04f 30ff 	mov.w	r0, #4294967295	; 0xffffffff
    2d82:	4479      	add	r1, pc
    2d84:	f002 f934 	bl	4ff0 <EnsureFrontOfChain+0x239c>
    2d88:	4939      	ldr	r1, [pc, #228]	; (2e70 <EnsureFrontOfChain+0x21c>)
    2d8a:	4479      	add	r1, pc
    2d8c:	4288      	cmp	r0, r1
    2d8e:	d063      	beq.n	2e58 <EnsureFrontOfChain+0x204>
    2d90:	4938      	ldr	r1, [pc, #224]	; (2e74 <EnsureFrontOfChain+0x220>)
    2d92:	4479      	add	r1, pc
    2d94:	60c8      	str	r0, [r1, #12]
    2d96:	4938      	ldr	r1, [pc, #224]	; (2e78 <EnsureFrontOfChain+0x224>)
    2d98:	f06f 0001 	mvn.w	r0, #1
    2d9c:	4479      	add	r1, pc
    2d9e:	f002 f927 	bl	4ff0 <EnsureFrontOfChain+0x239c>
    2da2:	b968      	cbnz	r0, 2dc0 <EnsureFrontOfChain+0x16c>
    2da4:	4935      	ldr	r1, [pc, #212]	; (2e7c <EnsureFrontOfChain+0x228>)
    2da6:	f04f 30ff 	mov.w	r0, #4294967295	; 0xffffffff
    2daa:	4479      	add	r1, pc
    2dac:	f002 f920 	bl	4ff0 <EnsureFrontOfChain+0x239c>
    2db0:	4933      	ldr	r1, [pc, #204]	; (2e80 <EnsureFrontOfChain+0x22c>)
    2db2:	4479      	add	r1, pc
    2db4:	4288      	cmp	r0, r1
    2db6:	d037      	beq.n	2e28 <EnsureFrontOfChain+0x1d4>
    2db8:	4932      	ldr	r1, [pc, #200]	; (2e84 <EnsureFrontOfChain+0x230>)
    2dba:	4479      	add	r1, pc
    2dbc:	4288      	cmp	r0, r1
    2dbe:	d033      	beq.n	2e28 <EnsureFrontOfChain+0x1d4>
    2dc0:	4931      	ldr	r1, [pc, #196]	; (2e88 <EnsureFrontOfChain+0x234>)
    2dc2:	4479      	add	r1, pc
    2dc4:	6048      	str	r0, [r1, #4]
    2dc6:	4931      	ldr	r1, [pc, #196]	; (2e8c <EnsureFrontOfChain+0x238>)
    2dc8:	f06f 0001 	mvn.w	r0, #1
    2dcc:	4479      	add	r1, pc
    2dce:	f002 f90f 	bl	4ff0 <EnsureFrontOfChain+0x239c>
    2dd2:	b968      	cbnz	r0, 2df0 <EnsureFrontOfChain+0x19c>
    2dd4:	492e      	ldr	r1, [pc, #184]	; (2e90 <EnsureFrontOfChain+0x23c>)
    2dd6:	f04f 30ff 	mov.w	r0, #4294967295	; 0xffffffff
    2dda:	4479      	add	r1, pc
    2ddc:	f002 f908 	bl	4ff0 <EnsureFrontOfChain+0x239c>
    2de0:	492c      	ldr	r1, [pc, #176]	; (2e94 <EnsureFrontOfChain+0x240>)
    2de2:	4479      	add	r1, pc
    2de4:	4288      	cmp	r0, r1
    2de6:	d027      	beq.n	2e38 <EnsureFrontOfChain+0x1e4>
    2de8:	492b      	ldr	r1, [pc, #172]	; (2e98 <EnsureFrontOfChain+0x244>)
    2dea:	4479      	add	r1, pc
    2dec:	4288      	cmp	r0, r1
    2dee:	d023      	beq.n	2e38 <EnsureFrontOfChain+0x1e4>
    2df0:	492a      	ldr	r1, [pc, #168]	; (2e9c <EnsureFrontOfChain+0x248>)
    2df2:	4479      	add	r1, pc
    2df4:	6108      	str	r0, [r1, #16]
    2df6:	492a      	ldr	r1, [pc, #168]	; (2ea0 <EnsureFrontOfChain+0x24c>)
    2df8:	f06f 0001 	mvn.w	r0, #1
    2dfc:	4479      	add	r1, pc
    2dfe:	f002 f8f7 	bl	4ff0 <EnsureFrontOfChain+0x239c>
    2e02:	b968      	cbnz	r0, 2e20 <EnsureFrontOfChain+0x1cc>
    2e04:	4927      	ldr	r1, [pc, #156]	; (2ea4 <EnsureFrontOfChain+0x250>)
    2e06:	f04f 30ff 	mov.w	r0, #4294967295	; 0xffffffff
    2e0a:	4479      	add	r1, pc
    2e0c:	f002 f8f0 	bl	4ff0 <EnsureFrontOfChain+0x239c>
    2e10:	4925      	ldr	r1, [pc, #148]	; (2ea8 <EnsureFrontOfChain+0x254>)
    2e12:	4479      	add	r1, pc
    2e14:	4288      	cmp	r0, r1
    2e16:	d017      	beq.n	2e48 <EnsureFrontOfChain+0x1f4>
    2e18:	4924      	ldr	r1, [pc, #144]	; (2eac <EnsureFrontOfChain+0x258>)
    2e1a:	4479      	add	r1, pc
    2e1c:	4288      	cmp	r0, r1
    2e1e:	d013      	beq.n	2e48 <EnsureFrontOfChain+0x1f4>
    2e20:	4923      	ldr	r1, [pc, #140]	; (2eb0 <EnsureFrontOfChain+0x25c>)
    2e22:	4479      	add	r1, pc
    2e24:	6088      	str	r0, [r1, #8]
    2e26:	bd80      	pop	{r7, pc}
    2e28:	4826      	ldr	r0, [pc, #152]	; (2ec4 <EnsureFrontOfChain+0x270>)
    2e2a:	4927      	ldr	r1, [pc, #156]	; (2ec8 <EnsureFrontOfChain+0x274>)
    2e2c:	4478      	add	r0, pc
    2e2e:	4479      	add	r1, pc
    2e30:	f7ff fb1c 	bl	246c <dl_iterate_phdr@plt+0xd40>
    2e34:	f002 f89c 	bl	4f70 <EnsureFrontOfChain+0x231c>
    2e38:	4820      	ldr	r0, [pc, #128]	; (2ebc <EnsureFrontOfChain+0x268>)
    2e3a:	4921      	ldr	r1, [pc, #132]	; (2ec0 <EnsureFrontOfChain+0x26c>)
    2e3c:	4478      	add	r0, pc
    2e3e:	4479      	add	r1, pc
    2e40:	f7ff fb14 	bl	246c <dl_iterate_phdr@plt+0xd40>
    2e44:	f002 f894 	bl	4f70 <EnsureFrontOfChain+0x231c>
    2e48:	481a      	ldr	r0, [pc, #104]	; (2eb4 <EnsureFrontOfChain+0x260>)
    2e4a:	491b      	ldr	r1, [pc, #108]	; (2eb8 <EnsureFrontOfChain+0x264>)
    2e4c:	4478      	add	r0, pc
    2e4e:	4479      	add	r1, pc
    2e50:	f7ff fb0c 	bl	246c <dl_iterate_phdr@plt+0xd40>
    2e54:	f002 f88c 	bl	4f70 <EnsureFrontOfChain+0x231c>
    2e58:	481c      	ldr	r0, [pc, #112]	; (2ecc <EnsureFrontOfChain+0x278>)
    2e5a:	491d      	ldr	r1, [pc, #116]	; (2ed0 <EnsureFrontOfChain+0x27c>)
    2e5c:	4478      	add	r0, pc
    2e5e:	4479      	add	r1, pc
    2e60:	f7ff fb04 	bl	246c <dl_iterate_phdr@plt+0xd40>
    2e64:	f002 f884 	bl	4f70 <EnsureFrontOfChain+0x231c>
    2e68:	29ed      	cmp	r1, #237	; 0xed
    2e6a:	0000      	movs	r0, r0
    2e6c:	29df      	cmp	r1, #223	; 0xdf
    2e6e:	0000      	movs	r0, r0
    2e70:	f747 ffff 	bl	fff4ae72 <EnsureFrontOfChain+0xfff4821e>
    2e74:	50ea      	str	r2, [r5, r3]
    2e76:	0000      	movs	r0, r0
    2e78:	29cf      	cmp	r1, #207	; 0xcf
    2e7a:	0000      	movs	r0, r0
    2e7c:	29c1      	cmp	r1, #193	; 0xc1
    2e7e:	0000      	movs	r0, r0
    2e80:	fa3f ffff 			; <UNDEFINED> instruction: 0xfa3fffff
    2e84:	f717 ffff 	bl	fff1ae86 <EnsureFrontOfChain+0xfff18232>
    2e88:	50ba      	str	r2, [r7, r2]
    2e8a:	0000      	movs	r0, r0
    2e8c:	29ab      	cmp	r1, #171	; 0xab
    2e8e:	0000      	movs	r0, r0
    2e90:	299d      	cmp	r1, #157	; 0x9d
    2e92:	0000      	movs	r0, r0
    2e94:	f7e3 ffff 	bl	fffe6e96 <EnsureFrontOfChain+0xfffe4242>
    2e98:	f6e7 ffff 	bl	ffeeae9a <EnsureFrontOfChain+0xffee8246>
    2e9c:	508a      	str	r2, [r1, r2]
    2e9e:	0000      	movs	r0, r0
    2ea0:	2987      	cmp	r1, #135	; 0x87
    2ea2:	0000      	movs	r0, r0
    2ea4:	2979      	cmp	r1, #121	; 0x79
    2ea6:	0000      	movs	r0, r0
    2ea8:	fb1b ffff 			; <UNDEFINED> instruction: 0xfb1bffff
    2eac:	f6b7 ffff 	bl	ffebaeae <EnsureFrontOfChain+0xffeb825a>
    2eb0:	505a      	str	r2, [r3, r1]
    2eb2:	0000      	movs	r0, r0
    2eb4:	2945      	cmp	r1, #69	; 0x45
    2eb6:	0000      	movs	r0, r0
    2eb8:	2935      	cmp	r1, #53	; 0x35
    2eba:	0000      	movs	r0, r0
    2ebc:	2955      	cmp	r1, #85	; 0x55
    2ebe:	0000      	movs	r0, r0
    2ec0:	2939      	cmp	r1, #57	; 0x39
    2ec2:	0000      	movs	r0, r0
    2ec4:	2965      	cmp	r1, #101	; 0x65
    2ec6:	0000      	movs	r0, r0
    2ec8:	293d      	cmp	r1, #61	; 0x3d
    2eca:	0000      	movs	r0, r0
    2ecc:	2935      	cmp	r1, #53	; 0x35
    2ece:	0000      	movs	r0, r0
    2ed0:	2903      	cmp	r1, #3
    2ed2:	0000      	movs	r0, r0
    2ed4:	6803      	ldr	r3, [r0, #0]
    2ed6:	2b00      	cmp	r3, #0
    2ed8:	db09      	blt.n	2eee <EnsureFrontOfChain+0x29a>
    2eda:	2301      	movs	r3, #1
    2edc:	600b      	str	r3, [r1, #0]
    2ede:	2304      	movs	r3, #4
    2ee0:	f850 1f04 	ldr.w	r1, [r0, #4]!
    2ee4:	0e09      	lsrs	r1, r1, #24
    2ee6:	eb03 0181 	add.w	r1, r3, r1, lsl #2
    2eea:	6011      	str	r1, [r2, #0]
    2eec:	4770      	bx	lr
    2eee:	f3c3 6c03 	ubfx	ip, r3, #24, #4
    2ef2:	f1bc 0f03 	cmp.w	ip, #3
    2ef6:	d00a      	beq.n	2f0e <EnsureFrontOfChain+0x2ba>
    2ef8:	f1bc 0f01 	cmp.w	ip, #1
    2efc:	d007      	beq.n	2f0e <EnsureFrontOfChain+0x2ba>
    2efe:	f1bc 0f00 	cmp.w	ip, #0
    2f02:	d10d      	bne.n	2f20 <EnsureFrontOfChain+0x2cc>
    2f04:	2304      	movs	r3, #4
    2f06:	6013      	str	r3, [r2, #0]
    2f08:	2201      	movs	r2, #1
    2f0a:	600a      	str	r2, [r1, #0]
    2f0c:	4770      	bx	lr
    2f0e:	f3c3 4c07 	ubfx	ip, r3, #16, #8
    2f12:	2304      	movs	r3, #4
    2f14:	eb03 038c 	add.w	r3, r3, ip, lsl #2
    2f18:	6013      	str	r3, [r2, #0]
    2f1a:	2202      	movs	r2, #2
    2f1c:	600a      	str	r2, [r1, #0]
    2f1e:	4770      	bx	lr
    2f20:	2000      	movs	r0, #0
    2f22:	4770      	bx	lr
    2f24:	e92d 4ff0 	stmdb	sp!, {r4, r5, r6, r7, r8, r9, sl, fp, lr}
    2f28:	b085      	sub	sp, #20
    2f2a:	f8df b634 	ldr.w	fp, [pc, #1588]	; 3560 <EnsureFrontOfChain+0x90c>
    2f2e:	4604      	mov	r4, r0
    2f30:	461d      	mov	r5, r3
    2f32:	4691      	mov	r9, r2
    2f34:	4688      	mov	r8, r1
    2f36:	44fb      	add	fp, pc
    2f38:	f8db 0000 	ldr.w	r0, [fp]
    2f3c:	6800      	ldr	r0, [r0, #0]
    2f3e:	9004      	str	r0, [sp, #16]
    2f40:	45a9      	cmp	r9, r5
    2f42:	f080 82f1 	bcs.w	3528 <EnsureFrontOfChain+0x8d4>
    2f46:	2000      	movs	r0, #0
    2f48:	9002      	str	r0, [sp, #8]
    2f4a:	e2c3      	b.n	34d4 <EnsureFrontOfChain+0x880>
    2f4c:	f00a 00f0 	and.w	r0, sl, #240	; 0xf0
    2f50:	3880      	subs	r0, #128	; 0x80
    2f52:	0900      	lsrs	r0, r0, #4
    2f54:	2805      	cmp	r0, #5
    2f56:	f200 82f3 	bhi.w	3540 <EnsureFrontOfChain+0x8ec>
    2f5a:	e8df f010 	tbh	[pc, r0, lsl #1]
    2f5e:	0006      	movs	r6, r0
    2f60:	002e      	movs	r6, r5
    2f62:	003c      	movs	r4, r7
    2f64:	00bb      	lsls	r3, r7, #2
    2f66:	015c      	lsls	r4, r3, #5
    2f68:	017b      	lsls	r3, r7, #5
    2f6a:	45a9      	cmp	r9, r5
    2f6c:	f080 82e8 	bcs.w	3540 <EnsureFrontOfChain+0x8ec>
    2f70:	f089 0003 	eor.w	r0, r9, #3
    2f74:	465e      	mov	r6, fp
    2f76:	f818 b000 	ldrb.w	fp, [r8, r0]
    2f7a:	ea4f 300a 	mov.w	r0, sl, lsl #12
    2f7e:	b280      	uxth	r0, r0
    2f80:	ea40 100b 	orr.w	r0, r0, fp, lsl #4
    2f84:	2800      	cmp	r0, #0
    2f86:	f000 82e5 	beq.w	3554 <EnsureFrontOfChain+0x900>
    2f8a:	ea5f 700a 	movs.w	r0, sl, lsl #28
    2f8e:	f04f 0101 	mov.w	r1, #1
    2f92:	9001      	str	r0, [sp, #4]
    2f94:	9802      	ldr	r0, [sp, #8]
    2f96:	bf48      	it	mi
    2f98:	4608      	movmi	r0, r1
    2f9a:	210d      	movs	r1, #13
    2f9c:	9002      	str	r0, [sp, #8]
    2f9e:	4620      	mov	r0, r4
    2fa0:	aa03      	add	r2, sp, #12
    2fa2:	f000 ff29 	bl	3df8 <EnsureFrontOfChain+0x11a4>
    2fa6:	f107 0902 	add.w	r9, r7, #2
    2faa:	2800      	cmp	r0, #0
    2fac:	f000 815b 	beq.w	3266 <EnsureFrontOfChain+0x612>
    2fb0:	46b3      	mov	fp, r6
    2fb2:	45a9      	cmp	r9, r5
    2fb4:	f0c0 828e 	bcc.w	34d4 <EnsureFrontOfChain+0x880>
    2fb8:	e2b3      	b.n	3522 <EnsureFrontOfChain+0x8ce>
    2fba:	f006 000f 	and.w	r0, r6, #15
    2fbe:	f040 0102 	orr.w	r1, r0, #2
    2fc2:	290f      	cmp	r1, #15
    2fc4:	f000 82bc 	beq.w	3540 <EnsureFrontOfChain+0x8ec>
    2fc8:	b2c1      	uxtb	r1, r0
    2fca:	4620      	mov	r0, r4
    2fcc:	aa03      	add	r2, sp, #12
    2fce:	f000 ff13 	bl	3df8 <EnsureFrontOfChain+0x11a4>
    2fd2:	9a03      	ldr	r2, [sp, #12]
    2fd4:	e29f      	b.n	3516 <EnsureFrontOfChain+0x8c2>
    2fd6:	4620      	mov	r0, r4
    2fd8:	210d      	movs	r1, #13
    2fda:	aa03      	add	r2, sp, #12
    2fdc:	f000 ff0c 	bl	3df8 <EnsureFrontOfChain+0x11a4>
    2fe0:	2800      	cmp	r0, #0
    2fe2:	f040 829c 	bne.w	351e <EnsureFrontOfChain+0x8ca>
    2fe6:	9803      	ldr	r0, [sp, #12]
    2fe8:	1d01      	adds	r1, r0, #4
    2fea:	9103      	str	r1, [sp, #12]
    2fec:	2104      	movs	r1, #4
    2fee:	6802      	ldr	r2, [r0, #0]
    2ff0:	4620      	mov	r0, r4
    2ff2:	f000 ff17 	bl	3e24 <EnsureFrontOfChain+0x11d0>
    2ff6:	2800      	cmp	r0, #0
    2ff8:	f040 8291 	bne.w	351e <EnsureFrontOfChain+0x8ca>
    2ffc:	f006 0007 	and.w	r0, r6, #7
    3000:	2120      	movs	r1, #32
    3002:	fa01 f000 	lsl.w	r0, r1, r0
    3006:	f1a0 0710 	sub.w	r7, r0, #16
    300a:	06b8      	lsls	r0, r7, #26
    300c:	d50a      	bpl.n	3024 <EnsureFrontOfChain+0x3d0>
    300e:	9803      	ldr	r0, [sp, #12]
    3010:	1d01      	adds	r1, r0, #4
    3012:	9103      	str	r1, [sp, #12]
    3014:	2105      	movs	r1, #5
    3016:	6802      	ldr	r2, [r0, #0]
    3018:	4620      	mov	r0, r4
    301a:	f000 ff03 	bl	3e24 <EnsureFrontOfChain+0x11d0>
    301e:	2800      	cmp	r0, #0
    3020:	f040 827d 	bne.w	351e <EnsureFrontOfChain+0x8ca>
    3024:	0678      	lsls	r0, r7, #25
    3026:	d50a      	bpl.n	303e <EnsureFrontOfChain+0x3ea>
    3028:	9803      	ldr	r0, [sp, #12]
    302a:	1d01      	adds	r1, r0, #4
    302c:	9103      	str	r1, [sp, #12]
    302e:	2106      	movs	r1, #6
    3030:	6802      	ldr	r2, [r0, #0]
    3032:	4620      	mov	r0, r4
    3034:	f000 fef6 	bl	3e24 <EnsureFrontOfChain+0x11d0>
    3038:	2800      	cmp	r0, #0
    303a:	f040 8270 	bne.w	351e <EnsureFrontOfChain+0x8ca>
    303e:	b278      	sxtb	r0, r7
    3040:	f1b0 3fff 	cmp.w	r0, #4294967295	; 0xffffffff
    3044:	f340 81d5 	ble.w	33f2 <EnsureFrontOfChain+0x79e>
    3048:	05f8      	lsls	r0, r7, #23
    304a:	d50a      	bpl.n	3062 <EnsureFrontOfChain+0x40e>
    304c:	9803      	ldr	r0, [sp, #12]
    304e:	1d01      	adds	r1, r0, #4
    3050:	9103      	str	r1, [sp, #12]
    3052:	2108      	movs	r1, #8
    3054:	6802      	ldr	r2, [r0, #0]
    3056:	4620      	mov	r0, r4
    3058:	f000 fee4 	bl	3e24 <EnsureFrontOfChain+0x11d0>
    305c:	2800      	cmp	r0, #0
    305e:	f040 825e 	bne.w	351e <EnsureFrontOfChain+0x8ca>
    3062:	05b8      	lsls	r0, r7, #22
    3064:	d50a      	bpl.n	307c <EnsureFrontOfChain+0x428>
    3066:	9803      	ldr	r0, [sp, #12]
    3068:	1d01      	adds	r1, r0, #4
    306a:	9103      	str	r1, [sp, #12]
    306c:	2109      	movs	r1, #9
    306e:	6802      	ldr	r2, [r0, #0]
    3070:	4620      	mov	r0, r4
    3072:	f000 fed7 	bl	3e24 <EnsureFrontOfChain+0x11d0>
    3076:	2800      	cmp	r0, #0
    3078:	f040 8251 	bne.w	351e <EnsureFrontOfChain+0x8ca>
    307c:	0578      	lsls	r0, r7, #21
    307e:	d50a      	bpl.n	3096 <EnsureFrontOfChain+0x442>
    3080:	9803      	ldr	r0, [sp, #12]
    3082:	1d01      	adds	r1, r0, #4
    3084:	9103      	str	r1, [sp, #12]
    3086:	210a      	movs	r1, #10
    3088:	6802      	ldr	r2, [r0, #0]
    308a:	4620      	mov	r0, r4
    308c:	f000 feca 	bl	3e24 <EnsureFrontOfChain+0x11d0>
    3090:	2800      	cmp	r0, #0
    3092:	f040 8244 	bne.w	351e <EnsureFrontOfChain+0x8ca>
    3096:	0538      	lsls	r0, r7, #20
    3098:	d50a      	bpl.n	30b0 <EnsureFrontOfChain+0x45c>
    309a:	9803      	ldr	r0, [sp, #12]
    309c:	1d01      	adds	r1, r0, #4
    309e:	9103      	str	r1, [sp, #12]
    30a0:	210b      	movs	r1, #11
    30a2:	6802      	ldr	r2, [r0, #0]
    30a4:	4620      	mov	r0, r4
    30a6:	f000 febd 	bl	3e24 <EnsureFrontOfChain+0x11d0>
    30aa:	2800      	cmp	r0, #0
    30ac:	f040 8237 	bne.w	351e <EnsureFrontOfChain+0x8ca>
    30b0:	04f8      	lsls	r0, r7, #19
    30b2:	d50a      	bpl.n	30ca <EnsureFrontOfChain+0x476>
    30b4:	9803      	ldr	r0, [sp, #12]
    30b6:	1d01      	adds	r1, r0, #4
    30b8:	9103      	str	r1, [sp, #12]
    30ba:	210c      	movs	r1, #12
    30bc:	6802      	ldr	r2, [r0, #0]
    30be:	4620      	mov	r0, r4
    30c0:	f000 feb0 	bl	3e24 <EnsureFrontOfChain+0x11d0>
    30c4:	2800      	cmp	r0, #0
    30c6:	f040 822a 	bne.w	351e <EnsureFrontOfChain+0x8ca>
    30ca:	04b8      	lsls	r0, r7, #18
    30cc:	f100 81da 	bmi.w	3484 <EnsureFrontOfChain+0x830>
    30d0:	2600      	movs	r6, #0
    30d2:	e1e2      	b.n	349a <EnsureFrontOfChain+0x846>
    30d4:	f1aa 01b0 	sub.w	r1, sl, #176	; 0xb0
    30d8:	2907      	cmp	r1, #7
    30da:	f200 8141 	bhi.w	3360 <EnsureFrontOfChain+0x70c>
    30de:	2009      	movs	r0, #9
    30e0:	e8df f011 	tbh	[pc, r1, lsl #1]
    30e4:	021f      	lsls	r7, r3, #8
    30e6:	0008      	movs	r0, r1
    30e8:	014c      	lsls	r4, r1, #5
    30ea:	0167      	lsls	r7, r4, #5
    30ec:	022f      	lsls	r7, r5, #8
    30ee:	022f      	lsls	r7, r5, #8
    30f0:	022f      	lsls	r7, r5, #8
    30f2:	022f      	lsls	r7, r5, #8
    30f4:	45a9      	cmp	r9, r5
    30f6:	f080 8223 	bcs.w	3540 <EnsureFrontOfChain+0x8ec>
    30fa:	f089 0003 	eor.w	r0, r9, #3
    30fe:	f818 a000 	ldrb.w	sl, [r8, r0]
    3102:	2009      	movs	r0, #9
    3104:	f1ba 0f00 	cmp.w	sl, #0
    3108:	f000 821b 	beq.w	3542 <EnsureFrontOfChain+0x8ee>
    310c:	f01a 01f0 	ands.w	r1, sl, #240	; 0xf0
    3110:	f040 8217 	bne.w	3542 <EnsureFrontOfChain+0x8ee>
    3114:	4620      	mov	r0, r4
    3116:	210d      	movs	r1, #13
    3118:	aa03      	add	r2, sp, #12
    311a:	f000 fe6d 	bl	3df8 <EnsureFrontOfChain+0x11a4>
    311e:	f107 0902 	add.w	r9, r7, #2
    3122:	2800      	cmp	r0, #0
    3124:	f040 81fb 	bne.w	351e <EnsureFrontOfChain+0x8ca>
    3128:	ea5f 70ca 	movs.w	r0, sl, lsl #31
    312c:	d00a      	beq.n	3144 <EnsureFrontOfChain+0x4f0>
    312e:	9803      	ldr	r0, [sp, #12]
    3130:	1d01      	adds	r1, r0, #4
    3132:	9103      	str	r1, [sp, #12]
    3134:	2100      	movs	r1, #0
    3136:	6802      	ldr	r2, [r0, #0]
    3138:	4620      	mov	r0, r4
    313a:	f000 fe73 	bl	3e24 <EnsureFrontOfChain+0x11d0>
    313e:	2800      	cmp	r0, #0
    3140:	f040 81ed 	bne.w	351e <EnsureFrontOfChain+0x8ca>
    3144:	ea5f 708a 	movs.w	r0, sl, lsl #30
    3148:	d50a      	bpl.n	3160 <EnsureFrontOfChain+0x50c>
    314a:	9803      	ldr	r0, [sp, #12]
    314c:	1d01      	adds	r1, r0, #4
    314e:	9103      	str	r1, [sp, #12]
    3150:	2101      	movs	r1, #1
    3152:	6802      	ldr	r2, [r0, #0]
    3154:	4620      	mov	r0, r4
    3156:	f000 fe65 	bl	3e24 <EnsureFrontOfChain+0x11d0>
    315a:	2800      	cmp	r0, #0
    315c:	f040 81df 	bne.w	351e <EnsureFrontOfChain+0x8ca>
    3160:	ea5f 704a 	movs.w	r0, sl, lsl #29
    3164:	d50a      	bpl.n	317c <EnsureFrontOfChain+0x528>
    3166:	9803      	ldr	r0, [sp, #12]
    3168:	1d01      	adds	r1, r0, #4
    316a:	9103      	str	r1, [sp, #12]
    316c:	2102      	movs	r1, #2
    316e:	6802      	ldr	r2, [r0, #0]
    3170:	4620      	mov	r0, r4
    3172:	f000 fe57 	bl	3e24 <EnsureFrontOfChain+0x11d0>
    3176:	2800      	cmp	r0, #0
    3178:	f040 81d1 	bne.w	351e <EnsureFrontOfChain+0x8ca>
    317c:	ea5f 700a 	movs.w	r0, sl, lsl #28
    3180:	d50a      	bpl.n	3198 <EnsureFrontOfChain+0x544>
    3182:	9803      	ldr	r0, [sp, #12]
    3184:	1d01      	adds	r1, r0, #4
    3186:	9103      	str	r1, [sp, #12]
    3188:	2103      	movs	r1, #3
    318a:	6802      	ldr	r2, [r0, #0]
    318c:	4620      	mov	r0, r4
    318e:	f000 fe49 	bl	3e24 <EnsureFrontOfChain+0x11d0>
    3192:	2800      	cmp	r0, #0
    3194:	f040 81c3 	bne.w	351e <EnsureFrontOfChain+0x8ca>
    3198:	ea5f 60ca 	movs.w	r0, sl, lsl #27
    319c:	d50a      	bpl.n	31b4 <EnsureFrontOfChain+0x560>
    319e:	9803      	ldr	r0, [sp, #12]
    31a0:	1d01      	adds	r1, r0, #4
    31a2:	9103      	str	r1, [sp, #12]
    31a4:	2104      	movs	r1, #4
    31a6:	6802      	ldr	r2, [r0, #0]
    31a8:	4620      	mov	r0, r4
    31aa:	f000 fe3b 	bl	3e24 <EnsureFrontOfChain+0x11d0>
    31ae:	2800      	cmp	r0, #0
    31b0:	f040 81b5 	bne.w	351e <EnsureFrontOfChain+0x8ca>
    31b4:	ea5f 608a 	movs.w	r0, sl, lsl #26
    31b8:	d50a      	bpl.n	31d0 <EnsureFrontOfChain+0x57c>
    31ba:	9803      	ldr	r0, [sp, #12]
    31bc:	1d01      	adds	r1, r0, #4
    31be:	9103      	str	r1, [sp, #12]
    31c0:	2105      	movs	r1, #5
    31c2:	6802      	ldr	r2, [r0, #0]
    31c4:	4620      	mov	r0, r4
    31c6:	f000 fe2d 	bl	3e24 <EnsureFrontOfChain+0x11d0>
    31ca:	2800      	cmp	r0, #0
    31cc:	f040 81a7 	bne.w	351e <EnsureFrontOfChain+0x8ca>
    31d0:	ea5f 604a 	movs.w	r0, sl, lsl #25
    31d4:	d50a      	bpl.n	31ec <EnsureFrontOfChain+0x598>
    31d6:	9803      	ldr	r0, [sp, #12]
    31d8:	1d01      	adds	r1, r0, #4
    31da:	9103      	str	r1, [sp, #12]
    31dc:	2106      	movs	r1, #6
    31de:	6802      	ldr	r2, [r0, #0]
    31e0:	4620      	mov	r0, r4
    31e2:	f000 fe1f 	bl	3e24 <EnsureFrontOfChain+0x11d0>
    31e6:	2800      	cmp	r0, #0
    31e8:	f040 8199 	bne.w	351e <EnsureFrontOfChain+0x8ca>
    31ec:	fa4f f08a 	sxtb.w	r0, sl
    31f0:	f1b0 3fff 	cmp.w	r0, #4294967295	; 0xffffffff
    31f4:	dc0a      	bgt.n	320c <EnsureFrontOfChain+0x5b8>
    31f6:	9803      	ldr	r0, [sp, #12]
    31f8:	1d01      	adds	r1, r0, #4
    31fa:	9103      	str	r1, [sp, #12]
    31fc:	2107      	movs	r1, #7
    31fe:	6802      	ldr	r2, [r0, #0]
    3200:	4620      	mov	r0, r4
    3202:	f000 fe0f 	bl	3e24 <EnsureFrontOfChain+0x11d0>
    3206:	2800      	cmp	r0, #0
    3208:	f040 8189 	bne.w	351e <EnsureFrontOfChain+0x8ca>
    320c:	2001      	movs	r0, #1
    320e:	2800      	cmp	r0, #0
    3210:	f000 8185 	beq.w	351e <EnsureFrontOfChain+0x8ca>
    3214:	e15c      	b.n	34d0 <EnsureFrontOfChain+0x87c>
    3216:	f00a 00fe 	and.w	r0, sl, #254	; 0xfe
    321a:	28c8      	cmp	r0, #200	; 0xc8
    321c:	f040 8190 	bne.w	3540 <EnsureFrontOfChain+0x8ec>
    3220:	f116 0038 	adds.w	r0, r6, #56	; 0x38
    3224:	f089 0103 	eor.w	r1, r9, #3
    3228:	f04f 0000 	mov.w	r0, #0
    322c:	bf08      	it	eq
    322e:	2001      	moveq	r0, #1
    3230:	f818 1001 	ldrb.w	r1, [r8, r1]
    3234:	090a      	lsrs	r2, r1, #4
    3236:	f001 010f 	and.w	r1, r1, #15
    323a:	ea42 1000 	orr.w	r0, r2, r0, lsl #4
    323e:	1842      	adds	r2, r0, r1
    3240:	2a1f      	cmp	r2, #31
    3242:	f200 817d 	bhi.w	3540 <EnsureFrontOfChain+0x8ec>
    3246:	3101      	adds	r1, #1
    3248:	b2c0      	uxtb	r0, r0
    324a:	2305      	movs	r3, #5
    324c:	b2c9      	uxtb	r1, r1
    324e:	ea41 4200 	orr.w	r2, r1, r0, lsl #16
    3252:	e0ba      	b.n	33ca <EnsureFrontOfChain+0x776>
    3254:	ea5f 700a 	movs.w	r0, sl, lsl #28
    3258:	f100 8172 	bmi.w	3540 <EnsureFrontOfChain+0x8ec>
    325c:	f006 0007 	and.w	r0, r6, #7
    3260:	2101      	movs	r1, #1
    3262:	2305      	movs	r3, #5
    3264:	e080      	b.n	3368 <EnsureFrontOfChain+0x714>
    3266:	ea5f 70cb 	movs.w	r0, fp, lsl #31
    326a:	d00a      	beq.n	3282 <EnsureFrontOfChain+0x62e>
    326c:	9803      	ldr	r0, [sp, #12]
    326e:	1d01      	adds	r1, r0, #4
    3270:	9103      	str	r1, [sp, #12]
    3272:	2104      	movs	r1, #4
    3274:	6802      	ldr	r2, [r0, #0]
    3276:	4620      	mov	r0, r4
    3278:	f000 fdd4 	bl	3e24 <EnsureFrontOfChain+0x11d0>
    327c:	2800      	cmp	r0, #0
    327e:	f47f ae97 	bne.w	2fb0 <EnsureFrontOfChain+0x35c>
    3282:	ea5f 708b 	movs.w	r0, fp, lsl #30
    3286:	d50a      	bpl.n	329e <EnsureFrontOfChain+0x64a>
    3288:	9803      	ldr	r0, [sp, #12]
    328a:	1d01      	adds	r1, r0, #4
    328c:	9103      	str	r1, [sp, #12]
    328e:	2105      	movs	r1, #5
    3290:	6802      	ldr	r2, [r0, #0]
    3292:	4620      	mov	r0, r4
    3294:	f000 fdc6 	bl	3e24 <EnsureFrontOfChain+0x11d0>
    3298:	2800      	cmp	r0, #0
    329a:	f47f ae89 	bne.w	2fb0 <EnsureFrontOfChain+0x35c>
    329e:	ea5f 704b 	movs.w	r0, fp, lsl #29
    32a2:	d50a      	bpl.n	32ba <EnsureFrontOfChain+0x666>
    32a4:	9803      	ldr	r0, [sp, #12]
    32a6:	1d01      	adds	r1, r0, #4
    32a8:	9103      	str	r1, [sp, #12]
    32aa:	2106      	movs	r1, #6
    32ac:	6802      	ldr	r2, [r0, #0]
    32ae:	4620      	mov	r0, r4
    32b0:	f000 fdb8 	bl	3e24 <EnsureFrontOfChain+0x11d0>
    32b4:	2800      	cmp	r0, #0
    32b6:	f47f ae7b 	bne.w	2fb0 <EnsureFrontOfChain+0x35c>
    32ba:	ea5f 700b 	movs.w	r0, fp, lsl #28
    32be:	d50a      	bpl.n	32d6 <EnsureFrontOfChain+0x682>
    32c0:	9803      	ldr	r0, [sp, #12]
    32c2:	1d01      	adds	r1, r0, #4
    32c4:	9103      	str	r1, [sp, #12]
    32c6:	2107      	movs	r1, #7
    32c8:	6802      	ldr	r2, [r0, #0]
    32ca:	4620      	mov	r0, r4
    32cc:	f000 fdaa 	bl	3e24 <EnsureFrontOfChain+0x11d0>
    32d0:	2800      	cmp	r0, #0
    32d2:	f47f ae6d 	bne.w	2fb0 <EnsureFrontOfChain+0x35c>
    32d6:	ea5f 60cb 	movs.w	r0, fp, lsl #27
    32da:	d50a      	bpl.n	32f2 <EnsureFrontOfChain+0x69e>
    32dc:	9803      	ldr	r0, [sp, #12]
    32de:	1d01      	adds	r1, r0, #4
    32e0:	9103      	str	r1, [sp, #12]
    32e2:	2108      	movs	r1, #8
    32e4:	6802      	ldr	r2, [r0, #0]
    32e6:	4620      	mov	r0, r4
    32e8:	f000 fd9c 	bl	3e24 <EnsureFrontOfChain+0x11d0>
    32ec:	2800      	cmp	r0, #0
    32ee:	f47f ae5f 	bne.w	2fb0 <EnsureFrontOfChain+0x35c>
    32f2:	ea5f 608b 	movs.w	r0, fp, lsl #26
    32f6:	d50a      	bpl.n	330e <EnsureFrontOfChain+0x6ba>
    32f8:	9803      	ldr	r0, [sp, #12]
    32fa:	1d01      	adds	r1, r0, #4
    32fc:	9103      	str	r1, [sp, #12]
    32fe:	2109      	movs	r1, #9
    3300:	6802      	ldr	r2, [r0, #0]
    3302:	4620      	mov	r0, r4
    3304:	f000 fd8e 	bl	3e24 <EnsureFrontOfChain+0x11d0>
    3308:	2800      	cmp	r0, #0
    330a:	f47f ae51 	bne.w	2fb0 <EnsureFrontOfChain+0x35c>
    330e:	ea5f 604b 	movs.w	r0, fp, lsl #25
    3312:	d50a      	bpl.n	332a <EnsureFrontOfChain+0x6d6>
    3314:	9803      	ldr	r0, [sp, #12]
    3316:	1d01      	adds	r1, r0, #4
    3318:	9103      	str	r1, [sp, #12]
    331a:	210a      	movs	r1, #10
    331c:	6802      	ldr	r2, [r0, #0]
    331e:	4620      	mov	r0, r4
    3320:	f000 fd80 	bl	3e24 <EnsureFrontOfChain+0x11d0>
    3324:	2800      	cmp	r0, #0
    3326:	f47f ae43 	bne.w	2fb0 <EnsureFrontOfChain+0x35c>
    332a:	fa4f f08b 	sxtb.w	r0, fp
    332e:	f1b0 3fff 	cmp.w	r0, #4294967295	; 0xffffffff
    3332:	dd6a      	ble.n	340a <EnsureFrontOfChain+0x7b6>
    3334:	ea5f 70ca 	movs.w	r0, sl, lsl #31
    3338:	d00a      	beq.n	3350 <EnsureFrontOfChain+0x6fc>
    333a:	9803      	ldr	r0, [sp, #12]
    333c:	1d01      	adds	r1, r0, #4
    333e:	9103      	str	r1, [sp, #12]
    3340:	210c      	movs	r1, #12
    3342:	6802      	ldr	r2, [r0, #0]
    3344:	4620      	mov	r0, r4
    3346:	f000 fd6d 	bl	3e24 <EnsureFrontOfChain+0x11d0>
    334a:	2800      	cmp	r0, #0
    334c:	f47f ae30 	bne.w	2fb0 <EnsureFrontOfChain+0x35c>
    3350:	ea5f 708a 	movs.w	r0, sl, lsl #30
    3354:	d465      	bmi.n	3422 <EnsureFrontOfChain+0x7ce>
    3356:	2700      	movs	r7, #0
    3358:	ea5f 704a 	movs.w	r0, sl, lsl #29
    335c:	d470      	bmi.n	3440 <EnsureFrontOfChain+0x7ec>
    335e:	e07a      	b.n	3456 <EnsureFrontOfChain+0x802>
    3360:	f006 0007 	and.w	r0, r6, #7
    3364:	2101      	movs	r1, #1
    3366:	2301      	movs	r3, #1
    3368:	3001      	adds	r0, #1
    336a:	f440 2200 	orr.w	r2, r0, #524288	; 0x80000
    336e:	4620      	mov	r0, r4
    3370:	f000 f998 	bl	36a4 <EnsureFrontOfChain+0xa50>
    3374:	45a9      	cmp	r9, r5
    3376:	f0c0 80ad 	bcc.w	34d4 <EnsureFrontOfChain+0x880>
    337a:	e0d2      	b.n	3522 <EnsureFrontOfChain+0x8ce>
    337c:	45a9      	cmp	r9, r5
    337e:	f080 80df 	bcs.w	3540 <EnsureFrontOfChain+0x8ec>
    3382:	f107 0902 	add.w	r9, r7, #2
    3386:	2600      	movs	r6, #0
    3388:	2000      	movs	r0, #0
    338a:	f1a9 0101 	sub.w	r1, r9, #1
    338e:	f081 0103 	eor.w	r1, r1, #3
    3392:	f818 1001 	ldrb.w	r1, [r8, r1]
    3396:	f001 027f 	and.w	r2, r1, #127	; 0x7f
    339a:	b249      	sxtb	r1, r1
    339c:	4082      	lsls	r2, r0
    339e:	4316      	orrs	r6, r2
    33a0:	2900      	cmp	r1, #0
    33a2:	da1b      	bge.n	33dc <EnsureFrontOfChain+0x788>
    33a4:	3007      	adds	r0, #7
    33a6:	f109 0101 	add.w	r1, r9, #1
    33aa:	45a9      	cmp	r9, r5
    33ac:	4689      	mov	r9, r1
    33ae:	d3ec      	bcc.n	338a <EnsureFrontOfChain+0x736>
    33b0:	e0c6      	b.n	3540 <EnsureFrontOfChain+0x8ec>
    33b2:	f089 0003 	eor.w	r0, r9, #3
    33b6:	2301      	movs	r3, #1
    33b8:	f818 0000 	ldrb.w	r0, [r8, r0]
    33bc:	f000 01f0 	and.w	r1, r0, #240	; 0xf0
    33c0:	f000 000f 	and.w	r0, r0, #15
    33c4:	3001      	adds	r0, #1
    33c6:	ea40 3201 	orr.w	r2, r0, r1, lsl #12
    33ca:	4620      	mov	r0, r4
    33cc:	2101      	movs	r1, #1
    33ce:	f000 f969 	bl	36a4 <EnsureFrontOfChain+0xa50>
    33d2:	f107 0902 	add.w	r9, r7, #2
    33d6:	45a9      	cmp	r9, r5
    33d8:	d37c      	bcc.n	34d4 <EnsureFrontOfChain+0x880>
    33da:	e0a2      	b.n	3522 <EnsureFrontOfChain+0x8ce>
    33dc:	4620      	mov	r0, r4
    33de:	210d      	movs	r1, #13
    33e0:	aa03      	add	r2, sp, #12
    33e2:	f000 fd09 	bl	3df8 <EnsureFrontOfChain+0x11a4>
    33e6:	9803      	ldr	r0, [sp, #12]
    33e8:	eb00 0086 	add.w	r0, r0, r6, lsl #2
    33ec:	f500 7201 	add.w	r2, r0, #516	; 0x204
    33f0:	e090      	b.n	3514 <EnsureFrontOfChain+0x8c0>
    33f2:	9803      	ldr	r0, [sp, #12]
    33f4:	1d01      	adds	r1, r0, #4
    33f6:	9103      	str	r1, [sp, #12]
    33f8:	2107      	movs	r1, #7
    33fa:	6802      	ldr	r2, [r0, #0]
    33fc:	4620      	mov	r0, r4
    33fe:	f000 fd11 	bl	3e24 <EnsureFrontOfChain+0x11d0>
    3402:	2800      	cmp	r0, #0
    3404:	f040 808b 	bne.w	351e <EnsureFrontOfChain+0x8ca>
    3408:	e61e      	b.n	3048 <EnsureFrontOfChain+0x3f4>
    340a:	9803      	ldr	r0, [sp, #12]
    340c:	1d01      	adds	r1, r0, #4
    340e:	9103      	str	r1, [sp, #12]
    3410:	210b      	movs	r1, #11
    3412:	6802      	ldr	r2, [r0, #0]
    3414:	4620      	mov	r0, r4
    3416:	f000 fd05 	bl	3e24 <EnsureFrontOfChain+0x11d0>
    341a:	2800      	cmp	r0, #0
    341c:	f47f adc8 	bne.w	2fb0 <EnsureFrontOfChain+0x35c>
    3420:	e788      	b.n	3334 <EnsureFrontOfChain+0x6e0>
    3422:	9803      	ldr	r0, [sp, #12]
    3424:	1d01      	adds	r1, r0, #4
    3426:	9103      	str	r1, [sp, #12]
    3428:	210d      	movs	r1, #13
    342a:	6802      	ldr	r2, [r0, #0]
    342c:	4620      	mov	r0, r4
    342e:	f000 fcf9 	bl	3e24 <EnsureFrontOfChain+0x11d0>
    3432:	2800      	cmp	r0, #0
    3434:	f47f adbc 	bne.w	2fb0 <EnsureFrontOfChain+0x35c>
    3438:	2701      	movs	r7, #1
    343a:	ea5f 704a 	movs.w	r0, sl, lsl #29
    343e:	d50a      	bpl.n	3456 <EnsureFrontOfChain+0x802>
    3440:	9803      	ldr	r0, [sp, #12]
    3442:	1d01      	adds	r1, r0, #4
    3444:	9103      	str	r1, [sp, #12]
    3446:	210e      	movs	r1, #14
    3448:	6802      	ldr	r2, [r0, #0]
    344a:	4620      	mov	r0, r4
    344c:	f000 fcea 	bl	3e24 <EnsureFrontOfChain+0x11d0>
    3450:	2800      	cmp	r0, #0
    3452:	f47f adad 	bne.w	2fb0 <EnsureFrontOfChain+0x35c>
    3456:	9801      	ldr	r0, [sp, #4]
    3458:	2800      	cmp	r0, #0
    345a:	d50a      	bpl.n	3472 <EnsureFrontOfChain+0x81e>
    345c:	9803      	ldr	r0, [sp, #12]
    345e:	1d01      	adds	r1, r0, #4
    3460:	9103      	str	r1, [sp, #12]
    3462:	210f      	movs	r1, #15
    3464:	6802      	ldr	r2, [r0, #0]
    3466:	4620      	mov	r0, r4
    3468:	f000 fcdc 	bl	3e24 <EnsureFrontOfChain+0x11d0>
    346c:	2800      	cmp	r0, #0
    346e:	f47f ad9f 	bne.w	2fb0 <EnsureFrontOfChain+0x35c>
    3472:	2f00      	cmp	r7, #0
    3474:	f47f ad9c 	bne.w	2fb0 <EnsureFrontOfChain+0x35c>
    3478:	9a03      	ldr	r2, [sp, #12]
    347a:	4620      	mov	r0, r4
    347c:	210d      	movs	r1, #13
    347e:	f000 fcd1 	bl	3e24 <EnsureFrontOfChain+0x11d0>
    3482:	e595      	b.n	2fb0 <EnsureFrontOfChain+0x35c>
    3484:	9803      	ldr	r0, [sp, #12]
    3486:	1d01      	adds	r1, r0, #4
    3488:	9103      	str	r1, [sp, #12]
    348a:	210d      	movs	r1, #13
    348c:	6802      	ldr	r2, [r0, #0]
    348e:	4620      	mov	r0, r4
    3490:	f000 fcc8 	bl	3e24 <EnsureFrontOfChain+0x11d0>
    3494:	2800      	cmp	r0, #0
    3496:	d142      	bne.n	351e <EnsureFrontOfChain+0x8ca>
    3498:	2601      	movs	r6, #1
    349a:	ea47 20ca 	orr.w	r0, r7, sl, lsl #11
    349e:	0440      	lsls	r0, r0, #17
    34a0:	d508      	bpl.n	34b4 <EnsureFrontOfChain+0x860>
    34a2:	9803      	ldr	r0, [sp, #12]
    34a4:	1d01      	adds	r1, r0, #4
    34a6:	9103      	str	r1, [sp, #12]
    34a8:	210e      	movs	r1, #14
    34aa:	6802      	ldr	r2, [r0, #0]
    34ac:	4620      	mov	r0, r4
    34ae:	f000 fcb9 	bl	3e24 <EnsureFrontOfChain+0x11d0>
    34b2:	bba0      	cbnz	r0, 351e <EnsureFrontOfChain+0x8ca>
    34b4:	b238      	sxth	r0, r7
    34b6:	f1b0 3fff 	cmp.w	r0, #4294967295	; 0xffffffff
    34ba:	dc08      	bgt.n	34ce <EnsureFrontOfChain+0x87a>
    34bc:	9803      	ldr	r0, [sp, #12]
    34be:	1d01      	adds	r1, r0, #4
    34c0:	9103      	str	r1, [sp, #12]
    34c2:	210f      	movs	r1, #15
    34c4:	6802      	ldr	r2, [r0, #0]
    34c6:	4620      	mov	r0, r4
    34c8:	f000 fcac 	bl	3e24 <EnsureFrontOfChain+0x11d0>
    34cc:	bb38      	cbnz	r0, 351e <EnsureFrontOfChain+0x8ca>
    34ce:	bb36      	cbnz	r6, 351e <EnsureFrontOfChain+0x8ca>
    34d0:	9a03      	ldr	r2, [sp, #12]
    34d2:	e020      	b.n	3516 <EnsureFrontOfChain+0x8c2>
    34d4:	464f      	mov	r7, r9
    34d6:	f087 0003 	eor.w	r0, r7, #3
    34da:	f107 0901 	add.w	r9, r7, #1
    34de:	f818 a000 	ldrb.w	sl, [r8, r0]
    34e2:	fa4f f68a 	sxtb.w	r6, sl
    34e6:	2e00      	cmp	r6, #0
    34e8:	f6ff ad30 	blt.w	2f4c <EnsureFrontOfChain+0x2f8>
    34ec:	4620      	mov	r0, r4
    34ee:	210d      	movs	r1, #13
    34f0:	aa03      	add	r2, sp, #12
    34f2:	f000 fc81 	bl	3df8 <EnsureFrontOfChain+0x11a4>
    34f6:	2004      	movs	r0, #4
    34f8:	f00a 013f 	and.w	r1, sl, #63	; 0x3f
    34fc:	f06f 0203 	mvn.w	r2, #3
    3500:	eb00 008a 	add.w	r0, r0, sl, lsl #2
    3504:	eba2 0181 	sub.w	r1, r2, r1, lsl #2
    3508:	f01a 0f40 	tst.w	sl, #64	; 0x40
    350c:	bf08      	it	eq
    350e:	4601      	moveq	r1, r0
    3510:	9803      	ldr	r0, [sp, #12]
    3512:	1842      	adds	r2, r0, r1
    3514:	9203      	str	r2, [sp, #12]
    3516:	4620      	mov	r0, r4
    3518:	210d      	movs	r1, #13
    351a:	f000 fc83 	bl	3e24 <EnsureFrontOfChain+0x11d0>
    351e:	45a9      	cmp	r9, r5
    3520:	d3d8      	bcc.n	34d4 <EnsureFrontOfChain+0x880>
    3522:	9802      	ldr	r0, [sp, #8]
    3524:	07c0      	lsls	r0, r0, #31
    3526:	d109      	bne.n	353c <EnsureFrontOfChain+0x8e8>
    3528:	aa03      	add	r2, sp, #12
    352a:	4620      	mov	r0, r4
    352c:	210e      	movs	r1, #14
    352e:	f000 fc63 	bl	3df8 <EnsureFrontOfChain+0x11a4>
    3532:	9a03      	ldr	r2, [sp, #12]
    3534:	4620      	mov	r0, r4
    3536:	210f      	movs	r1, #15
    3538:	f000 fc74 	bl	3e24 <EnsureFrontOfChain+0x11d0>
    353c:	2008      	movs	r0, #8
    353e:	e000      	b.n	3542 <EnsureFrontOfChain+0x8ee>
    3540:	2009      	movs	r0, #9
    3542:	f8db 1000 	ldr.w	r1, [fp]
    3546:	6809      	ldr	r1, [r1, #0]
    3548:	9a04      	ldr	r2, [sp, #16]
    354a:	1a89      	subs	r1, r1, r2
    354c:	d105      	bne.n	355a <EnsureFrontOfChain+0x906>
    354e:	b005      	add	sp, #20
    3550:	e8bd 8ff0 	ldmia.w	sp!, {r4, r5, r6, r7, r8, r9, sl, fp, pc}
    3554:	2009      	movs	r0, #9
    3556:	46b3      	mov	fp, r6
    3558:	e7f3      	b.n	3542 <EnsureFrontOfChain+0x8ee>
    355a:	f001 fc31 	bl	4dc0 <EnsureFrontOfChain+0x216c>
    355e:	bf00      	nop
    3560:	3f82      	subs	r7, #130	; 0x82
    3562:	0000      	movs	r0, r0
    3564:	b570      	push	{r4, r5, r6, lr}
    3566:	b082      	sub	sp, #8
    3568:	9c06      	ldr	r4, [sp, #24]
    356a:	4615      	mov	r5, r2
    356c:	4606      	mov	r6, r0
    356e:	2901      	cmp	r1, #1
    3570:	d00a      	beq.n	3588 <EnsureFrontOfChain+0x934>
    3572:	bb19      	cbnz	r1, 35bc <EnsureFrontOfChain+0x968>
    3574:	2002      	movs	r0, #2
    3576:	2d0f      	cmp	r5, #15
    3578:	d813      	bhi.n	35a2 <EnsureFrontOfChain+0x94e>
    357a:	b993      	cbnz	r3, 35a2 <EnsureFrontOfChain+0x94e>
    357c:	4630      	mov	r0, r6
    357e:	4629      	mov	r1, r5
    3580:	4622      	mov	r2, r4
    3582:	f000 fc39 	bl	3df8 <EnsureFrontOfChain+0x11a4>
    3586:	e014      	b.n	35b2 <EnsureFrontOfChain+0x95e>
    3588:	2b05      	cmp	r3, #5
    358a:	d007      	beq.n	359c <EnsureFrontOfChain+0x948>
    358c:	2b01      	cmp	r3, #1
    358e:	d107      	bne.n	35a0 <EnsureFrontOfChain+0x94c>
    3590:	2d0f      	cmp	r5, #15
    3592:	d805      	bhi.n	35a0 <EnsureFrontOfChain+0x94c>
    3594:	4630      	mov	r0, r6
    3596:	f000 fcb5 	bl	3f04 <EnsureFrontOfChain+0x12b0>
    359a:	e004      	b.n	35a6 <EnsureFrontOfChain+0x952>
    359c:	2d1f      	cmp	r5, #31
    359e:	d902      	bls.n	35a6 <EnsureFrontOfChain+0x952>
    35a0:	2002      	movs	r0, #2
    35a2:	b002      	add	sp, #8
    35a4:	bd70      	pop	{r4, r5, r6, pc}
    35a6:	f505 7180 	add.w	r1, r5, #256	; 0x100
    35aa:	4630      	mov	r0, r6
    35ac:	4622      	mov	r2, r4
    35ae:	f000 fc5b 	bl	3e68 <EnsureFrontOfChain+0x1214>
    35b2:	2800      	cmp	r0, #0
    35b4:	bf18      	it	ne
    35b6:	2002      	movne	r0, #2
    35b8:	b002      	add	sp, #8
    35ba:	bd70      	pop	{r4, r5, r6, pc}
    35bc:	f240 305f 	movw	r0, #863	; 0x35f
    35c0:	490d      	ldr	r1, [pc, #52]	; (35f8 <EnsureFrontOfChain+0x9a4>)
    35c2:	4a0e      	ldr	r2, [pc, #56]	; (35fc <EnsureFrontOfChain+0x9a8>)
    35c4:	4b0e      	ldr	r3, [pc, #56]	; (3600 <EnsureFrontOfChain+0x9ac>)
    35c6:	9000      	str	r0, [sp, #0]
    35c8:	4809      	ldr	r0, [pc, #36]	; (35f0 <EnsureFrontOfChain+0x99c>)
    35ca:	4479      	add	r1, pc
    35cc:	447a      	add	r2, pc
    35ce:	447b      	add	r3, pc
    35d0:	4478      	add	r0, pc
    35d2:	9001      	str	r0, [sp, #4]
    35d4:	4807      	ldr	r0, [pc, #28]	; (35f4 <EnsureFrontOfChain+0x9a0>)
    35d6:	4478      	add	r0, pc
    35d8:	6800      	ldr	r0, [r0, #0]
    35da:	f100 04a8 	add.w	r4, r0, #168	; 0xa8
    35de:	4620      	mov	r0, r4
    35e0:	f001 fd0e 	bl	5000 <EnsureFrontOfChain+0x23ac>
    35e4:	4620      	mov	r0, r4
    35e6:	f001 fd13 	bl	5010 <EnsureFrontOfChain+0x23bc>
    35ea:	f001 fcc1 	bl	4f70 <EnsureFrontOfChain+0x231c>
    35ee:	bf00      	nop
    35f0:	226c      	movs	r2, #108	; 0x6c
    35f2:	0000      	movs	r0, r0
    35f4:	38ea      	subs	r0, #234	; 0xea
    35f6:	0000      	movs	r0, r0
    35f8:	21ee      	movs	r1, #238	; 0xee
    35fa:	0000      	movs	r0, r0
    35fc:	230c      	movs	r3, #12
    35fe:	0000      	movs	r0, r0
    3600:	2213      	movs	r2, #19
    3602:	0000      	movs	r0, r0
    3604:	b570      	push	{r4, r5, r6, lr}
    3606:	b082      	sub	sp, #8
    3608:	9e06      	ldr	r6, [sp, #24]
    360a:	4614      	mov	r4, r2
    360c:	4605      	mov	r5, r0
    360e:	2901      	cmp	r1, #1
    3610:	d00a      	beq.n	3628 <EnsureFrontOfChain+0x9d4>
    3612:	bb21      	cbnz	r1, 365e <EnsureFrontOfChain+0xa0a>
    3614:	2002      	movs	r0, #2
    3616:	2c0f      	cmp	r4, #15
    3618:	d813      	bhi.n	3642 <EnsureFrontOfChain+0x9ee>
    361a:	b993      	cbnz	r3, 3642 <EnsureFrontOfChain+0x9ee>
    361c:	6832      	ldr	r2, [r6, #0]
    361e:	4628      	mov	r0, r5
    3620:	4621      	mov	r1, r4
    3622:	f000 fbff 	bl	3e24 <EnsureFrontOfChain+0x11d0>
    3626:	e015      	b.n	3654 <EnsureFrontOfChain+0xa00>
    3628:	2b05      	cmp	r3, #5
    362a:	d007      	beq.n	363c <EnsureFrontOfChain+0x9e8>
    362c:	2b01      	cmp	r3, #1
    362e:	d107      	bne.n	3640 <EnsureFrontOfChain+0x9ec>
    3630:	2c0f      	cmp	r4, #15
    3632:	d805      	bhi.n	3640 <EnsureFrontOfChain+0x9ec>
    3634:	4628      	mov	r0, r5
    3636:	f000 fc65 	bl	3f04 <EnsureFrontOfChain+0x12b0>
    363a:	e004      	b.n	3646 <EnsureFrontOfChain+0x9f2>
    363c:	2c1f      	cmp	r4, #31
    363e:	d902      	bls.n	3646 <EnsureFrontOfChain+0x9f2>
    3640:	2002      	movs	r0, #2
    3642:	b002      	add	sp, #8
    3644:	bd70      	pop	{r4, r5, r6, pc}
    3646:	e9d6 2300 	ldrd	r2, r3, [r6]
    364a:	f504 7180 	add.w	r1, r4, #256	; 0x100
    364e:	4628      	mov	r0, r5
    3650:	f000 fc21 	bl	3e96 <EnsureFrontOfChain+0x1242>
    3654:	2800      	cmp	r0, #0
    3656:	bf18      	it	ne
    3658:	2002      	movne	r0, #2
    365a:	b002      	add	sp, #8
    365c:	bd70      	pop	{r4, r5, r6, pc}
    365e:	f240 3029 	movw	r0, #809	; 0x329
    3662:	490d      	ldr	r1, [pc, #52]	; (3698 <EnsureFrontOfChain+0xa44>)
    3664:	4a0d      	ldr	r2, [pc, #52]	; (369c <EnsureFrontOfChain+0xa48>)
    3666:	4b0e      	ldr	r3, [pc, #56]	; (36a0 <EnsureFrontOfChain+0xa4c>)
    3668:	9000      	str	r0, [sp, #0]
    366a:	4809      	ldr	r0, [pc, #36]	; (3690 <EnsureFrontOfChain+0xa3c>)
    366c:	4479      	add	r1, pc
    366e:	447a      	add	r2, pc
    3670:	447b      	add	r3, pc
    3672:	4478      	add	r0, pc
    3674:	9001      	str	r0, [sp, #4]
    3676:	4807      	ldr	r0, [pc, #28]	; (3694 <EnsureFrontOfChain+0xa40>)
    3678:	4478      	add	r0, pc
    367a:	6800      	ldr	r0, [r0, #0]
    367c:	f100 04a8 	add.w	r4, r0, #168	; 0xa8
    3680:	4620      	mov	r0, r4
    3682:	f001 fcbd 	bl	5000 <EnsureFrontOfChain+0x23ac>
    3686:	4620      	mov	r0, r4
    3688:	f001 fcc2 	bl	5010 <EnsureFrontOfChain+0x23bc>
    368c:	f001 fc70 	bl	4f70 <EnsureFrontOfChain+0x231c>
    3690:	21ca      	movs	r1, #202	; 0xca
    3692:	0000      	movs	r0, r0
    3694:	3848      	subs	r0, #72	; 0x48
    3696:	0000      	movs	r0, r0
    3698:	214c      	movs	r1, #76	; 0x4c
    369a:	0000      	movs	r0, r0
    369c:	21be      	movs	r1, #190	; 0xbe
    369e:	0000      	movs	r0, r0
    36a0:	2171      	movs	r1, #113	; 0x71
    36a2:	0000      	movs	r0, r0
    36a4:	e92d 43f0 	stmdb	sp!, {r4, r5, r6, r7, r8, r9, lr}
    36a8:	b087      	sub	sp, #28
    36aa:	f8df 8288 	ldr.w	r8, [pc, #648]	; 3934 <EnsureFrontOfChain+0xce0>
    36ae:	4681      	mov	r9, r0
    36b0:	461e      	mov	r6, r3
    36b2:	4615      	mov	r5, r2
    36b4:	2901      	cmp	r1, #1
    36b6:	44f8      	add	r8, pc
    36b8:	f8d8 0000 	ldr.w	r0, [r8]
    36bc:	6800      	ldr	r0, [r0, #0]
    36be:	9006      	str	r0, [sp, #24]
    36c0:	f000 80a6 	beq.w	3810 <EnsureFrontOfChain+0xbbc>
    36c4:	2900      	cmp	r1, #0
    36c6:	f040 811c 	bne.w	3902 <EnsureFrontOfChain+0xcae>
    36ca:	2e00      	cmp	r6, #0
    36cc:	f040 80aa 	bne.w	3824 <EnsureFrontOfChain+0xbd0>
    36d0:	aa02      	add	r2, sp, #8
    36d2:	4648      	mov	r0, r9
    36d4:	210d      	movs	r1, #13
    36d6:	f000 fb8f 	bl	3df8 <EnsureFrontOfChain+0x11a4>
    36da:	2800      	cmp	r0, #0
    36dc:	f040 80a2 	bne.w	3824 <EnsureFrontOfChain+0xbd0>
    36e0:	07e8      	lsls	r0, r5, #31
    36e2:	d00a      	beq.n	36fa <EnsureFrontOfChain+0xaa6>
    36e4:	9802      	ldr	r0, [sp, #8]
    36e6:	1d01      	adds	r1, r0, #4
    36e8:	9102      	str	r1, [sp, #8]
    36ea:	2100      	movs	r1, #0
    36ec:	6802      	ldr	r2, [r0, #0]
    36ee:	4648      	mov	r0, r9
    36f0:	f000 fb98 	bl	3e24 <EnsureFrontOfChain+0x11d0>
    36f4:	2800      	cmp	r0, #0
    36f6:	f040 8095 	bne.w	3824 <EnsureFrontOfChain+0xbd0>
    36fa:	07a8      	lsls	r0, r5, #30
    36fc:	d50a      	bpl.n	3714 <EnsureFrontOfChain+0xac0>
    36fe:	9802      	ldr	r0, [sp, #8]
    3700:	1d01      	adds	r1, r0, #4
    3702:	9102      	str	r1, [sp, #8]
    3704:	2101      	movs	r1, #1
    3706:	6802      	ldr	r2, [r0, #0]
    3708:	4648      	mov	r0, r9
    370a:	f000 fb8b 	bl	3e24 <EnsureFrontOfChain+0x11d0>
    370e:	2800      	cmp	r0, #0
    3710:	f040 8088 	bne.w	3824 <EnsureFrontOfChain+0xbd0>
    3714:	0768      	lsls	r0, r5, #29
    3716:	d50a      	bpl.n	372e <EnsureFrontOfChain+0xada>
    3718:	9802      	ldr	r0, [sp, #8]
    371a:	2602      	movs	r6, #2
    371c:	1d01      	adds	r1, r0, #4
    371e:	9102      	str	r1, [sp, #8]
    3720:	2102      	movs	r1, #2
    3722:	6802      	ldr	r2, [r0, #0]
    3724:	4648      	mov	r0, r9
    3726:	f000 fb7d 	bl	3e24 <EnsureFrontOfChain+0x11d0>
    372a:	2800      	cmp	r0, #0
    372c:	d17b      	bne.n	3826 <EnsureFrontOfChain+0xbd2>
    372e:	0728      	lsls	r0, r5, #28
    3730:	d509      	bpl.n	3746 <EnsureFrontOfChain+0xaf2>
    3732:	9802      	ldr	r0, [sp, #8]
    3734:	1d01      	adds	r1, r0, #4
    3736:	9102      	str	r1, [sp, #8]
    3738:	2103      	movs	r1, #3
    373a:	6802      	ldr	r2, [r0, #0]
    373c:	4648      	mov	r0, r9
    373e:	f000 fb71 	bl	3e24 <EnsureFrontOfChain+0x11d0>
    3742:	2800      	cmp	r0, #0
    3744:	d16e      	bne.n	3824 <EnsureFrontOfChain+0xbd0>
    3746:	06e8      	lsls	r0, r5, #27
    3748:	d509      	bpl.n	375e <EnsureFrontOfChain+0xb0a>
    374a:	9802      	ldr	r0, [sp, #8]
    374c:	1d01      	adds	r1, r0, #4
    374e:	9102      	str	r1, [sp, #8]
    3750:	2104      	movs	r1, #4
    3752:	6802      	ldr	r2, [r0, #0]
    3754:	4648      	mov	r0, r9
    3756:	f000 fb65 	bl	3e24 <EnsureFrontOfChain+0x11d0>
    375a:	2800      	cmp	r0, #0
    375c:	d162      	bne.n	3824 <EnsureFrontOfChain+0xbd0>
    375e:	06a8      	lsls	r0, r5, #26
    3760:	d509      	bpl.n	3776 <EnsureFrontOfChain+0xb22>
    3762:	9802      	ldr	r0, [sp, #8]
    3764:	1d01      	adds	r1, r0, #4
    3766:	9102      	str	r1, [sp, #8]
    3768:	2105      	movs	r1, #5
    376a:	6802      	ldr	r2, [r0, #0]
    376c:	4648      	mov	r0, r9
    376e:	f000 fb59 	bl	3e24 <EnsureFrontOfChain+0x11d0>
    3772:	2800      	cmp	r0, #0
    3774:	d156      	bne.n	3824 <EnsureFrontOfChain+0xbd0>
    3776:	0668      	lsls	r0, r5, #25
    3778:	d509      	bpl.n	378e <EnsureFrontOfChain+0xb3a>
    377a:	9802      	ldr	r0, [sp, #8]
    377c:	1d01      	adds	r1, r0, #4
    377e:	9102      	str	r1, [sp, #8]
    3780:	2106      	movs	r1, #6
    3782:	6802      	ldr	r2, [r0, #0]
    3784:	4648      	mov	r0, r9
    3786:	f000 fb4d 	bl	3e24 <EnsureFrontOfChain+0x11d0>
    378a:	2800      	cmp	r0, #0
    378c:	d14a      	bne.n	3824 <EnsureFrontOfChain+0xbd0>
    378e:	b268      	sxtb	r0, r5
    3790:	f1b0 3fff 	cmp.w	r0, #4294967295	; 0xffffffff
    3794:	dd7d      	ble.n	3892 <EnsureFrontOfChain+0xc3e>
    3796:	05e8      	lsls	r0, r5, #23
    3798:	d508      	bpl.n	37ac <EnsureFrontOfChain+0xb58>
    379a:	9802      	ldr	r0, [sp, #8]
    379c:	1d01      	adds	r1, r0, #4
    379e:	9102      	str	r1, [sp, #8]
    37a0:	2108      	movs	r1, #8
    37a2:	6802      	ldr	r2, [r0, #0]
    37a4:	4648      	mov	r0, r9
    37a6:	f000 fb3d 	bl	3e24 <EnsureFrontOfChain+0x11d0>
    37aa:	bbd8      	cbnz	r0, 3824 <EnsureFrontOfChain+0xbd0>
    37ac:	05a8      	lsls	r0, r5, #22
    37ae:	d508      	bpl.n	37c2 <EnsureFrontOfChain+0xb6e>
    37b0:	9802      	ldr	r0, [sp, #8]
    37b2:	1d01      	adds	r1, r0, #4
    37b4:	9102      	str	r1, [sp, #8]
    37b6:	2109      	movs	r1, #9
    37b8:	6802      	ldr	r2, [r0, #0]
    37ba:	4648      	mov	r0, r9
    37bc:	f000 fb32 	bl	3e24 <EnsureFrontOfChain+0x11d0>
    37c0:	bb80      	cbnz	r0, 3824 <EnsureFrontOfChain+0xbd0>
    37c2:	0568      	lsls	r0, r5, #21
    37c4:	d508      	bpl.n	37d8 <EnsureFrontOfChain+0xb84>
    37c6:	9802      	ldr	r0, [sp, #8]
    37c8:	1d01      	adds	r1, r0, #4
    37ca:	9102      	str	r1, [sp, #8]
    37cc:	210a      	movs	r1, #10
    37ce:	6802      	ldr	r2, [r0, #0]
    37d0:	4648      	mov	r0, r9
    37d2:	f000 fb27 	bl	3e24 <EnsureFrontOfChain+0x11d0>
    37d6:	bb28      	cbnz	r0, 3824 <EnsureFrontOfChain+0xbd0>
    37d8:	0528      	lsls	r0, r5, #20
    37da:	d508      	bpl.n	37ee <EnsureFrontOfChain+0xb9a>
    37dc:	9802      	ldr	r0, [sp, #8]
    37de:	1d01      	adds	r1, r0, #4
    37e0:	9102      	str	r1, [sp, #8]
    37e2:	210b      	movs	r1, #11
    37e4:	6802      	ldr	r2, [r0, #0]
    37e6:	4648      	mov	r0, r9
    37e8:	f000 fb1c 	bl	3e24 <EnsureFrontOfChain+0x11d0>
    37ec:	b9d0      	cbnz	r0, 3824 <EnsureFrontOfChain+0xbd0>
    37ee:	04e8      	lsls	r0, r5, #19
    37f0:	d508      	bpl.n	3804 <EnsureFrontOfChain+0xbb0>
    37f2:	9802      	ldr	r0, [sp, #8]
    37f4:	1d01      	adds	r1, r0, #4
    37f6:	9102      	str	r1, [sp, #8]
    37f8:	210c      	movs	r1, #12
    37fa:	6802      	ldr	r2, [r0, #0]
    37fc:	4648      	mov	r0, r9
    37fe:	f000 fb11 	bl	3e24 <EnsureFrontOfChain+0x11d0>
    3802:	b978      	cbnz	r0, 3824 <EnsureFrontOfChain+0xbd0>
    3804:	04a8      	lsls	r0, r5, #18
    3806:	d44f      	bmi.n	38a8 <EnsureFrontOfChain+0xc54>
    3808:	2600      	movs	r6, #0
    380a:	0468      	lsls	r0, r5, #17
    380c:	d459      	bmi.n	38c2 <EnsureFrontOfChain+0xc6e>
    380e:	e062      	b.n	38d6 <EnsureFrontOfChain+0xc82>
    3810:	f046 0004 	orr.w	r0, r6, #4
    3814:	2805      	cmp	r0, #5
    3816:	d105      	bne.n	3824 <EnsureFrontOfChain+0xbd0>
    3818:	aa05      	add	r2, sp, #20
    381a:	4648      	mov	r0, r9
    381c:	210d      	movs	r1, #13
    381e:	f000 faeb 	bl	3df8 <EnsureFrontOfChain+0x11a4>
    3822:	b150      	cbz	r0, 383a <EnsureFrontOfChain+0xbe6>
    3824:	2602      	movs	r6, #2
    3826:	f8d8 0000 	ldr.w	r0, [r8]
    382a:	6800      	ldr	r0, [r0, #0]
    382c:	9906      	ldr	r1, [sp, #24]
    382e:	1a40      	subs	r0, r0, r1
    3830:	d165      	bne.n	38fe <EnsureFrontOfChain+0xcaa>
    3832:	4630      	mov	r0, r6
    3834:	b007      	add	sp, #28
    3836:	e8bd 83f0 	ldmia.w	sp!, {r4, r5, r6, r7, r8, r9, pc}
    383a:	b2a8      	uxth	r0, r5
    383c:	b1c8      	cbz	r0, 3872 <EnsureFrontOfChain+0xc1e>
    383e:	0c2f      	lsrs	r7, r5, #16
    3840:	ac02      	add	r4, sp, #8
    3842:	fa17 f585 	uxtah	r5, r7, r5
    3846:	9805      	ldr	r0, [sp, #20]
    3848:	4633      	mov	r3, r6
    384a:	1d01      	adds	r1, r0, #4
    384c:	9105      	str	r1, [sp, #20]
    384e:	4601      	mov	r1, r0
    3850:	f851 2b08 	ldr.w	r2, [r1], #8
    3854:	9105      	str	r1, [sp, #20]
    3856:	2101      	movs	r1, #1
    3858:	6840      	ldr	r0, [r0, #4]
    385a:	e9cd 2002 	strd	r2, r0, [sp, #8]
    385e:	4648      	mov	r0, r9
    3860:	463a      	mov	r2, r7
    3862:	9400      	str	r4, [sp, #0]
    3864:	f7ff fece 	bl	3604 <EnsureFrontOfChain+0x9b0>
    3868:	2800      	cmp	r0, #0
    386a:	d1db      	bne.n	3824 <EnsureFrontOfChain+0xbd0>
    386c:	3701      	adds	r7, #1
    386e:	42af      	cmp	r7, r5
    3870:	d3e9      	bcc.n	3846 <EnsureFrontOfChain+0xbf2>
    3872:	2e01      	cmp	r6, #1
    3874:	d103      	bne.n	387e <EnsureFrontOfChain+0xc2a>
    3876:	9805      	ldr	r0, [sp, #20]
    3878:	1d02      	adds	r2, r0, #4
    387a:	9205      	str	r2, [sp, #20]
    387c:	e000      	b.n	3880 <EnsureFrontOfChain+0xc2c>
    387e:	9a05      	ldr	r2, [sp, #20]
    3880:	4648      	mov	r0, r9
    3882:	210d      	movs	r1, #13
    3884:	f000 face 	bl	3e24 <EnsureFrontOfChain+0x11d0>
    3888:	4606      	mov	r6, r0
    388a:	2e00      	cmp	r6, #0
    388c:	bf18      	it	ne
    388e:	2602      	movne	r6, #2
    3890:	e7c9      	b.n	3826 <EnsureFrontOfChain+0xbd2>
    3892:	9802      	ldr	r0, [sp, #8]
    3894:	1d01      	adds	r1, r0, #4
    3896:	9102      	str	r1, [sp, #8]
    3898:	2107      	movs	r1, #7
    389a:	6802      	ldr	r2, [r0, #0]
    389c:	4648      	mov	r0, r9
    389e:	f000 fac1 	bl	3e24 <EnsureFrontOfChain+0x11d0>
    38a2:	2800      	cmp	r0, #0
    38a4:	d1be      	bne.n	3824 <EnsureFrontOfChain+0xbd0>
    38a6:	e776      	b.n	3796 <EnsureFrontOfChain+0xb42>
    38a8:	9802      	ldr	r0, [sp, #8]
    38aa:	1d01      	adds	r1, r0, #4
    38ac:	9102      	str	r1, [sp, #8]
    38ae:	210d      	movs	r1, #13
    38b0:	6802      	ldr	r2, [r0, #0]
    38b2:	4648      	mov	r0, r9
    38b4:	f000 fab6 	bl	3e24 <EnsureFrontOfChain+0x11d0>
    38b8:	2800      	cmp	r0, #0
    38ba:	d1b3      	bne.n	3824 <EnsureFrontOfChain+0xbd0>
    38bc:	2601      	movs	r6, #1
    38be:	0468      	lsls	r0, r5, #17
    38c0:	d509      	bpl.n	38d6 <EnsureFrontOfChain+0xc82>
    38c2:	9802      	ldr	r0, [sp, #8]
    38c4:	1d01      	adds	r1, r0, #4
    38c6:	9102      	str	r1, [sp, #8]
    38c8:	210e      	movs	r1, #14
    38ca:	6802      	ldr	r2, [r0, #0]
    38cc:	4648      	mov	r0, r9
    38ce:	f000 faa9 	bl	3e24 <EnsureFrontOfChain+0x11d0>
    38d2:	2800      	cmp	r0, #0
    38d4:	d1a6      	bne.n	3824 <EnsureFrontOfChain+0xbd0>
    38d6:	b228      	sxth	r0, r5
    38d8:	f1b0 3fff 	cmp.w	r0, #4294967295	; 0xffffffff
    38dc:	dd02      	ble.n	38e4 <EnsureFrontOfChain+0xc90>
    38de:	b166      	cbz	r6, 38fa <EnsureFrontOfChain+0xca6>
    38e0:	2600      	movs	r6, #0
    38e2:	e7a0      	b.n	3826 <EnsureFrontOfChain+0xbd2>
    38e4:	9802      	ldr	r0, [sp, #8]
    38e6:	1d01      	adds	r1, r0, #4
    38e8:	9102      	str	r1, [sp, #8]
    38ea:	210f      	movs	r1, #15
    38ec:	6802      	ldr	r2, [r0, #0]
    38ee:	4648      	mov	r0, r9
    38f0:	f000 fa98 	bl	3e24 <EnsureFrontOfChain+0x11d0>
    38f4:	2800      	cmp	r0, #0
    38f6:	d195      	bne.n	3824 <EnsureFrontOfChain+0xbd0>
    38f8:	e7f1      	b.n	38de <EnsureFrontOfChain+0xc8a>
    38fa:	9a02      	ldr	r2, [sp, #8]
    38fc:	e7c0      	b.n	3880 <EnsureFrontOfChain+0xc2c>
    38fe:	f001 fa5f 	bl	4dc0 <EnsureFrontOfChain+0x216c>
    3902:	f240 30b9 	movw	r0, #953	; 0x3b9
    3906:	490e      	ldr	r1, [pc, #56]	; (3940 <EnsureFrontOfChain+0xcec>)
    3908:	4a0e      	ldr	r2, [pc, #56]	; (3944 <EnsureFrontOfChain+0xcf0>)
    390a:	4b0f      	ldr	r3, [pc, #60]	; (3948 <EnsureFrontOfChain+0xcf4>)
    390c:	9000      	str	r0, [sp, #0]
    390e:	480a      	ldr	r0, [pc, #40]	; (3938 <EnsureFrontOfChain+0xce4>)
    3910:	4479      	add	r1, pc
    3912:	447a      	add	r2, pc
    3914:	447b      	add	r3, pc
    3916:	4478      	add	r0, pc
    3918:	9001      	str	r0, [sp, #4]
    391a:	4808      	ldr	r0, [pc, #32]	; (393c <EnsureFrontOfChain+0xce8>)
    391c:	4478      	add	r0, pc
    391e:	6800      	ldr	r0, [r0, #0]
    3920:	f100 04a8 	add.w	r4, r0, #168	; 0xa8
    3924:	4620      	mov	r0, r4
    3926:	f001 fb6b 	bl	5000 <EnsureFrontOfChain+0x23ac>
    392a:	4620      	mov	r0, r4
    392c:	f001 fb70 	bl	5010 <EnsureFrontOfChain+0x23bc>
    3930:	f001 fb1e 	bl	4f70 <EnsureFrontOfChain+0x231c>
    3934:	3802      	subs	r0, #2
    3936:	0000      	movs	r0, r0
    3938:	1f26      	subs	r6, r4, #4
    393a:	0000      	movs	r0, r0
    393c:	35a4      	adds	r5, #164	; 0xa4
    393e:	0000      	movs	r0, r0
    3940:	1ea8      	subs	r0, r5, #2
    3942:	0000      	movs	r0, r0
    3944:	1f45      	subs	r5, r0, #5
    3946:	0000      	movs	r0, r0
    3948:	1ecd      	subs	r5, r1, #3
    394a:	0000      	movs	r0, r0
    394c:	b570      	push	{r4, r5, r6, lr}
    394e:	b08c      	sub	sp, #48	; 0x30
    3950:	4e12      	ldr	r6, [pc, #72]	; (399c <EnsureFrontOfChain+0xd48>)
    3952:	4614      	mov	r4, r2
    3954:	460d      	mov	r5, r1
    3956:	447e      	add	r6, pc
    3958:	6830      	ldr	r0, [r6, #0]
    395a:	6800      	ldr	r0, [r0, #0]
    395c:	900b      	str	r0, [sp, #44]	; 0x2c
    395e:	a901      	add	r1, sp, #4
    3960:	4620      	mov	r0, r4
    3962:	f000 fab6 	bl	3ed2 <EnsureFrontOfChain+0x127e>
    3966:	f895 0050 	ldrb.w	r0, [r5, #80]	; 0x50
    396a:	07c0      	lsls	r0, r0, #31
    396c:	d104      	bne.n	3978 <EnsureFrontOfChain+0xd24>
    396e:	9803      	ldr	r0, [sp, #12]
    3970:	6800      	ldr	r0, [r0, #0]
    3972:	b108      	cbz	r0, 3978 <EnsureFrontOfChain+0xd24>
    3974:	2009      	movs	r0, #9
    3976:	e007      	b.n	3988 <EnsureFrontOfChain+0xd34>
    3978:	4620      	mov	r0, r4
    397a:	f000 faa7 	bl	3ecc <EnsureFrontOfChain+0x1278>
    397e:	4601      	mov	r1, r0
    3980:	2009      	movs	r0, #9
    3982:	2901      	cmp	r1, #1
    3984:	bf08      	it	eq
    3986:	2008      	moveq	r0, #8
    3988:	6831      	ldr	r1, [r6, #0]
    398a:	6809      	ldr	r1, [r1, #0]
    398c:	9a0b      	ldr	r2, [sp, #44]	; 0x2c
    398e:	1a89      	subs	r1, r1, r2
    3990:	d101      	bne.n	3996 <EnsureFrontOfChain+0xd42>
    3992:	b00c      	add	sp, #48	; 0x30
    3994:	bd70      	pop	{r4, r5, r6, pc}
    3996:	f001 fa13 	bl	4dc0 <EnsureFrontOfChain+0x216c>
    399a:	bf00      	nop
    399c:	3562      	adds	r5, #98	; 0x62
    399e:	0000      	movs	r0, r0
    39a0:	b570      	push	{r4, r5, r6, lr}
    39a2:	b08c      	sub	sp, #48	; 0x30
    39a4:	4e12      	ldr	r6, [pc, #72]	; (39f0 <EnsureFrontOfChain+0xd9c>)
    39a6:	4614      	mov	r4, r2
    39a8:	460d      	mov	r5, r1
    39aa:	447e      	add	r6, pc
    39ac:	6830      	ldr	r0, [r6, #0]
    39ae:	6800      	ldr	r0, [r0, #0]
    39b0:	900b      	str	r0, [sp, #44]	; 0x2c
    39b2:	a901      	add	r1, sp, #4
    39b4:	4620      	mov	r0, r4
    39b6:	f000 fa8c 	bl	3ed2 <EnsureFrontOfChain+0x127e>
    39ba:	f895 0050 	ldrb.w	r0, [r5, #80]	; 0x50
    39be:	07c0      	lsls	r0, r0, #31
    39c0:	d104      	bne.n	39cc <EnsureFrontOfChain+0xd78>
    39c2:	9803      	ldr	r0, [sp, #12]
    39c4:	6800      	ldr	r0, [r0, #0]
    39c6:	b108      	cbz	r0, 39cc <EnsureFrontOfChain+0xd78>
    39c8:	2009      	movs	r0, #9
    39ca:	e007      	b.n	39dc <EnsureFrontOfChain+0xd88>
    39cc:	4620      	mov	r0, r4
    39ce:	f000 fa7d 	bl	3ecc <EnsureFrontOfChain+0x1278>
    39d2:	4601      	mov	r1, r0
    39d4:	2009      	movs	r0, #9
    39d6:	2901      	cmp	r1, #1
    39d8:	bf08      	it	eq
    39da:	2008      	moveq	r0, #8
    39dc:	6831      	ldr	r1, [r6, #0]
    39de:	6809      	ldr	r1, [r1, #0]
    39e0:	9a0b      	ldr	r2, [sp, #44]	; 0x2c
    39e2:	1a89      	subs	r1, r1, r2
    39e4:	d101      	bne.n	39ea <EnsureFrontOfChain+0xd96>
    39e6:	b00c      	add	sp, #48	; 0x30
    39e8:	bd70      	pop	{r4, r5, r6, pc}
    39ea:	f001 f9e9 	bl	4dc0 <EnsureFrontOfChain+0x216c>
    39ee:	bf00      	nop
    39f0:	350e      	adds	r5, #14
    39f2:	0000      	movs	r0, r0
    39f4:	b570      	push	{r4, r5, r6, lr}
    39f6:	b08c      	sub	sp, #48	; 0x30
    39f8:	4e12      	ldr	r6, [pc, #72]	; (3a44 <EnsureFrontOfChain+0xdf0>)
    39fa:	4614      	mov	r4, r2
    39fc:	460d      	mov	r5, r1
    39fe:	447e      	add	r6, pc
    3a00:	6830      	ldr	r0, [r6, #0]
    3a02:	6800      	ldr	r0, [r0, #0]
    3a04:	900b      	str	r0, [sp, #44]	; 0x2c
    3a06:	a901      	add	r1, sp, #4
    3a08:	4620      	mov	r0, r4
    3a0a:	f000 fa62 	bl	3ed2 <EnsureFrontOfChain+0x127e>
    3a0e:	f895 0050 	ldrb.w	r0, [r5, #80]	; 0x50
    3a12:	07c0      	lsls	r0, r0, #31
    3a14:	d104      	bne.n	3a20 <EnsureFrontOfChain+0xdcc>
    3a16:	9803      	ldr	r0, [sp, #12]
    3a18:	6800      	ldr	r0, [r0, #0]
    3a1a:	b108      	cbz	r0, 3a20 <EnsureFrontOfChain+0xdcc>
    3a1c:	2009      	movs	r0, #9
    3a1e:	e007      	b.n	3a30 <EnsureFrontOfChain+0xddc>
    3a20:	4620      	mov	r0, r4
    3a22:	f000 fa53 	bl	3ecc <EnsureFrontOfChain+0x1278>
    3a26:	4601      	mov	r1, r0
    3a28:	2009      	movs	r0, #9
    3a2a:	2901      	cmp	r1, #1
    3a2c:	bf08      	it	eq
    3a2e:	2008      	moveq	r0, #8
    3a30:	6831      	ldr	r1, [r6, #0]
    3a32:	6809      	ldr	r1, [r1, #0]
    3a34:	9a0b      	ldr	r2, [sp, #44]	; 0x2c
    3a36:	1a89      	subs	r1, r1, r2
    3a38:	d101      	bne.n	3a3e <EnsureFrontOfChain+0xdea>
    3a3a:	b00c      	add	sp, #48	; 0x30
    3a3c:	bd70      	pop	{r4, r5, r6, pc}
    3a3e:	f001 f9bf 	bl	4dc0 <EnsureFrontOfChain+0x216c>
    3a42:	bf00      	nop
    3a44:	34ba      	adds	r4, #186	; 0xba
    3a46:	0000      	movs	r0, r0
    3a48:	b5f0      	push	{r4, r5, r6, r7, lr}
    3a4a:	f5ad 6d08 	sub.w	sp, sp, #2176	; 0x880
    3a4e:	b083      	sub	sp, #12
    3a50:	4f24      	ldr	r7, [pc, #144]	; (3ae4 <EnsureFrontOfChain+0xe90>)
    3a52:	4604      	mov	r4, r0
    3a54:	f50d 6591 	add.w	r5, sp, #1160	; 0x488
    3a58:	447f      	add	r7, pc
    3a5a:	6838      	ldr	r0, [r7, #0]
    3a5c:	6800      	ldr	r0, [r0, #0]
    3a5e:	f8cd 0888 	str.w	r0, [sp, #2184]	; 0x888
    3a62:	4628      	mov	r0, r5
    3a64:	f001 fadc 	bl	5020 <EnsureFrontOfChain+0x23cc>
    3a68:	2000      	movs	r0, #0
    3a6a:	4629      	mov	r1, r5
    3a6c:	60e0      	str	r0, [r4, #12]
    3a6e:	ae0a      	add	r6, sp, #40	; 0x28
    3a70:	4630      	mov	r0, r6
    3a72:	f000 f955 	bl	3d20 <EnsureFrontOfChain+0x10cc>
    3a76:	4669      	mov	r1, sp
    3a78:	4630      	mov	r0, r6
    3a7a:	f000 fa2a 	bl	3ed2 <EnsureFrontOfChain+0x127e>
    3a7e:	b9b0      	cbnz	r0, 3aae <EnsureFrontOfChain+0xe5a>
    3a80:	ad0a      	add	r5, sp, #40	; 0x28
    3a82:	466e      	mov	r6, sp
    3a84:	9b03      	ldr	r3, [sp, #12]
    3a86:	b163      	cbz	r3, 3aa2 <EnsureFrontOfChain+0xe4e>
    3a88:	9800      	ldr	r0, [sp, #0]
    3a8a:	9908      	ldr	r1, [sp, #32]
    3a8c:	9a05      	ldr	r2, [sp, #20]
    3a8e:	f104 0c48 	add.w	ip, r4, #72	; 0x48
    3a92:	e88c 0007 	stmia.w	ip, {r0, r1, r2}
    3a96:	2000      	movs	r0, #0
    3a98:	4621      	mov	r1, r4
    3a9a:	462a      	mov	r2, r5
    3a9c:	4798      	blx	r3
    3a9e:	2808      	cmp	r0, #8
    3aa0:	d110      	bne.n	3ac4 <EnsureFrontOfChain+0xe70>
    3aa2:	4628      	mov	r0, r5
    3aa4:	4631      	mov	r1, r6
    3aa6:	f000 fa14 	bl	3ed2 <EnsureFrontOfChain+0x127e>
    3aaa:	2800      	cmp	r0, #0
    3aac:	d0ea      	beq.n	3a84 <EnsureFrontOfChain+0xe30>
    3aae:	2003      	movs	r0, #3
    3ab0:	6839      	ldr	r1, [r7, #0]
    3ab2:	6809      	ldr	r1, [r1, #0]
    3ab4:	f8dd 2888 	ldr.w	r2, [sp, #2184]	; 0x888
    3ab8:	1a89      	subs	r1, r1, r2
    3aba:	d111      	bne.n	3ae0 <EnsureFrontOfChain+0xe8c>
    3abc:	f50d 6d08 	add.w	sp, sp, #2176	; 0x880
    3ac0:	b003      	add	sp, #12
    3ac2:	bdf0      	pop	{r4, r5, r6, r7, pc}
    3ac4:	2806      	cmp	r0, #6
    3ac6:	d002      	beq.n	3ace <EnsureFrontOfChain+0xe7a>
    3ac8:	2809      	cmp	r0, #9
    3aca:	d1f0      	bne.n	3aae <EnsureFrontOfChain+0xe5a>
    3acc:	e7f0      	b.n	3ab0 <EnsureFrontOfChain+0xe5c>
    3ace:	f50d 6091 	add.w	r0, sp, #1160	; 0x488
    3ad2:	a90a      	add	r1, sp, #40	; 0x28
    3ad4:	4622      	mov	r2, r4
    3ad6:	2300      	movs	r3, #0
    3ad8:	f000 f806 	bl	3ae8 <EnsureFrontOfChain+0xe94>
    3adc:	2002      	movs	r0, #2
    3ade:	e7e7      	b.n	3ab0 <EnsureFrontOfChain+0xe5c>
    3ae0:	f001 f96e 	bl	4dc0 <EnsureFrontOfChain+0x216c>
    3ae4:	3460      	adds	r4, #96	; 0x60
    3ae6:	0000      	movs	r0, r0
    3ae8:	e92d 4ff0 	stmdb	sp!, {r4, r5, r6, r7, r8, r9, sl, fp, lr}
    3aec:	b08f      	sub	sp, #60	; 0x3c
    3aee:	f8df 90ec 	ldr.w	r9, [pc, #236]	; 3bdc <EnsureFrontOfChain+0xf88>
    3af2:	460c      	mov	r4, r1
    3af4:	4601      	mov	r1, r0
    3af6:	469b      	mov	fp, r3
    3af8:	4615      	mov	r5, r2
    3afa:	44f9      	add	r9, pc
    3afc:	f8d9 0000 	ldr.w	r0, [r9]
    3b00:	6800      	ldr	r0, [r0, #0]
    3b02:	900e      	str	r0, [sp, #56]	; 0x38
    3b04:	4620      	mov	r0, r4
    3b06:	f000 f90b 	bl	3d20 <EnsureFrontOfChain+0x10cc>
    3b0a:	2700      	movs	r7, #0
    3b0c:	f10d 0834 	add.w	r8, sp, #52	; 0x34
    3b10:	f10d 0a0c 	add.w	sl, sp, #12
    3b14:	e000      	b.n	3b18 <EnsureFrontOfChain+0xec4>
    3b16:	3701      	adds	r7, #1
    3b18:	f00b 0601 	and.w	r6, fp, #1
    3b1c:	2f01      	cmp	r7, #1
    3b1e:	d108      	bne.n	3b32 <EnsureFrontOfChain+0xede>
    3b20:	b13e      	cbz	r6, 3b32 <EnsureFrontOfChain+0xede>
    3b22:	692a      	ldr	r2, [r5, #16]
    3b24:	4620      	mov	r0, r4
    3b26:	f04f 31ff 	mov.w	r1, #4294967295	; 0xffffffff
    3b2a:	f000 f97b 	bl	3e24 <EnsureFrontOfChain+0x11d0>
    3b2e:	f04f 0b00 	mov.w	fp, #0
    3b32:	4620      	mov	r0, r4
    3b34:	f06f 0101 	mvn.w	r1, #1
    3b38:	4642      	mov	r2, r8
    3b3a:	f000 f95d 	bl	3df8 <EnsureFrontOfChain+0x11a4>
    3b3e:	4620      	mov	r0, r4
    3b40:	4651      	mov	r1, sl
    3b42:	f000 f9c6 	bl	3ed2 <EnsureFrontOfChain+0x127e>
    3b46:	bbe8      	cbnz	r0, 3bc4 <EnsureFrontOfChain+0xf70>
    3b48:	9b06      	ldr	r3, [sp, #24]
    3b4a:	2b00      	cmp	r3, #0
    3b4c:	d0e3      	beq.n	3b16 <EnsureFrontOfChain+0xec2>
    3b4e:	1c70      	adds	r0, r6, #1
    3b50:	9903      	ldr	r1, [sp, #12]
    3b52:	9a0b      	ldr	r2, [sp, #44]	; 0x2c
    3b54:	9e08      	ldr	r6, [sp, #32]
    3b56:	f105 0c48 	add.w	ip, r5, #72	; 0x48
    3b5a:	e88c 0046 	stmia.w	ip, {r1, r2, r6}
    3b5e:	4629      	mov	r1, r5
    3b60:	4622      	mov	r2, r4
    3b62:	4798      	blx	r3
    3b64:	2807      	cmp	r0, #7
    3b66:	d022      	beq.n	3bae <EnsureFrontOfChain+0xf5a>
    3b68:	2808      	cmp	r0, #8
    3b6a:	d11c      	bne.n	3ba6 <EnsureFrontOfChain+0xf52>
    3b6c:	6a28      	ldr	r0, [r5, #32]
    3b6e:	990d      	ldr	r1, [sp, #52]	; 0x34
    3b70:	4281      	cmp	r1, r0
    3b72:	d1d0      	bne.n	3b16 <EnsureFrontOfChain+0xec2>
    3b74:	f240 2069 	movw	r0, #617	; 0x269
    3b78:	491b      	ldr	r1, [pc, #108]	; (3be8 <EnsureFrontOfChain+0xf94>)
    3b7a:	4a1c      	ldr	r2, [pc, #112]	; (3bec <EnsureFrontOfChain+0xf98>)
    3b7c:	4b1c      	ldr	r3, [pc, #112]	; (3bf0 <EnsureFrontOfChain+0xf9c>)
    3b7e:	9000      	str	r0, [sp, #0]
    3b80:	4817      	ldr	r0, [pc, #92]	; (3be0 <EnsureFrontOfChain+0xf8c>)
    3b82:	4479      	add	r1, pc
    3b84:	447a      	add	r2, pc
    3b86:	447b      	add	r3, pc
    3b88:	4478      	add	r0, pc
    3b8a:	9001      	str	r0, [sp, #4]
    3b8c:	4815      	ldr	r0, [pc, #84]	; (3be4 <EnsureFrontOfChain+0xf90>)
    3b8e:	4478      	add	r0, pc
    3b90:	6800      	ldr	r0, [r0, #0]
    3b92:	f100 04a8 	add.w	r4, r0, #168	; 0xa8
    3b96:	4620      	mov	r0, r4
    3b98:	f001 fa32 	bl	5000 <EnsureFrontOfChain+0x23ac>
    3b9c:	4620      	mov	r0, r4
    3b9e:	f001 fa37 	bl	5010 <EnsureFrontOfChain+0x23bc>
    3ba2:	f001 f9e5 	bl	4f70 <EnsureFrontOfChain+0x231c>
    3ba6:	2809      	cmp	r0, #9
    3ba8:	d10c      	bne.n	3bc4 <EnsureFrontOfChain+0xf70>
    3baa:	f001 f9e1 	bl	4f70 <EnsureFrontOfChain+0x231c>
    3bae:	aa02      	add	r2, sp, #8
    3bb0:	4620      	mov	r0, r4
    3bb2:	f04f 31ff 	mov.w	r1, #4294967295	; 0xffffffff
    3bb6:	f000 f91f 	bl	3df8 <EnsureFrontOfChain+0x11a4>
    3bba:	9802      	ldr	r0, [sp, #8]
    3bbc:	6128      	str	r0, [r5, #16]
    3bbe:	4620      	mov	r0, r4
    3bc0:	f000 f997 	bl	3ef2 <EnsureFrontOfChain+0x129e>
    3bc4:	f8d9 0000 	ldr.w	r0, [r9]
    3bc8:	6800      	ldr	r0, [r0, #0]
    3bca:	990e      	ldr	r1, [sp, #56]	; 0x38
    3bcc:	1a40      	subs	r0, r0, r1
    3bce:	d102      	bne.n	3bd6 <EnsureFrontOfChain+0xf82>
    3bd0:	b00f      	add	sp, #60	; 0x3c
    3bd2:	e8bd 8ff0 	ldmia.w	sp!, {r4, r5, r6, r7, r8, r9, sl, fp, pc}
    3bd6:	f001 f8f3 	bl	4dc0 <EnsureFrontOfChain+0x216c>
    3bda:	bf00      	nop
    3bdc:	33be      	adds	r3, #190	; 0xbe
    3bde:	0000      	movs	r0, r0
    3be0:	1ced      	adds	r5, r5, #3
    3be2:	0000      	movs	r0, r0
    3be4:	3332      	adds	r3, #50	; 0x32
    3be6:	0000      	movs	r0, r0
    3be8:	1c36      	adds	r6, r6, #0
    3bea:	0000      	movs	r0, r0
    3bec:	1ce3      	adds	r3, r4, #3
    3bee:	0000      	movs	r0, r0
    3bf0:	1c5b      	adds	r3, r3, #1
    3bf2:	0000      	movs	r0, r0
    3bf4:	4770      	bx	lr
    3bf6:	0000      	movs	r0, r0
    3bf8:	b5b0      	push	{r4, r5, r7, lr}
    3bfa:	f5ad 6d06 	sub.w	sp, sp, #2144	; 0x860
    3bfe:	b082      	sub	sp, #8
    3c00:	f50d 658d 	add.w	r5, sp, #1128	; 0x468
    3c04:	4604      	mov	r4, r0
    3c06:	4628      	mov	r0, r5
    3c08:	f001 fa0a 	bl	5020 <EnsureFrontOfChain+0x23cc>
    3c0c:	a902      	add	r1, sp, #8
    3c0e:	4628      	mov	r0, r5
    3c10:	4622      	mov	r2, r4
    3c12:	2301      	movs	r3, #1
    3c14:	f7ff ff68 	bl	3ae8 <EnsureFrontOfChain+0xe94>
    3c18:	480c      	ldr	r0, [pc, #48]	; (3c4c <EnsureFrontOfChain+0xff8>)
    3c1a:	f240 21cf 	movw	r1, #719	; 0x2cf
    3c1e:	4a0e      	ldr	r2, [pc, #56]	; (3c58 <EnsureFrontOfChain+0x1004>)
    3c20:	4b0e      	ldr	r3, [pc, #56]	; (3c5c <EnsureFrontOfChain+0x1008>)
    3c22:	4478      	add	r0, pc
    3c24:	447a      	add	r2, pc
    3c26:	447b      	add	r3, pc
    3c28:	e9cd 1000 	strd	r1, r0, [sp]
    3c2c:	4808      	ldr	r0, [pc, #32]	; (3c50 <EnsureFrontOfChain+0xffc>)
    3c2e:	4909      	ldr	r1, [pc, #36]	; (3c54 <EnsureFrontOfChain+0x1000>)
    3c30:	4478      	add	r0, pc
    3c32:	4479      	add	r1, pc
    3c34:	6800      	ldr	r0, [r0, #0]
    3c36:	f100 04a8 	add.w	r4, r0, #168	; 0xa8
    3c3a:	4620      	mov	r0, r4
    3c3c:	f001 f9e0 	bl	5000 <EnsureFrontOfChain+0x23ac>
    3c40:	4620      	mov	r0, r4
    3c42:	f001 f9e5 	bl	5010 <EnsureFrontOfChain+0x23bc>
    3c46:	f001 f993 	bl	4f70 <EnsureFrontOfChain+0x231c>
    3c4a:	bf00      	nop
    3c4c:	1bec      	subs	r4, r5, r7
    3c4e:	0000      	movs	r0, r0
    3c50:	3290      	adds	r2, #144	; 0x90
    3c52:	0000      	movs	r0, r0
    3c54:	1b86      	subs	r6, r0, r6
    3c56:	0000      	movs	r0, r0
    3c58:	1bae      	subs	r6, r5, r6
    3c5a:	0000      	movs	r0, r0
    3c5c:	1bbb      	subs	r3, r7, r6
    3c5e:	0000      	movs	r0, r0
    3c60:	b510      	push	{r4, lr}
    3c62:	b08c      	sub	sp, #48	; 0x30
    3c64:	4c0b      	ldr	r4, [pc, #44]	; (3c94 <EnsureFrontOfChain+0x1040>)
    3c66:	447c      	add	r4, pc
    3c68:	6821      	ldr	r1, [r4, #0]
    3c6a:	6809      	ldr	r1, [r1, #0]
    3c6c:	910b      	str	r1, [sp, #44]	; 0x2c
    3c6e:	a901      	add	r1, sp, #4
    3c70:	f000 f92f 	bl	3ed2 <EnsureFrontOfChain+0x127e>
    3c74:	9a03      	ldr	r2, [sp, #12]
    3c76:	4601      	mov	r1, r0
    3c78:	2000      	movs	r0, #0
    3c7a:	2900      	cmp	r1, #0
    3c7c:	bf08      	it	eq
    3c7e:	4610      	moveq	r0, r2
    3c80:	6821      	ldr	r1, [r4, #0]
    3c82:	6809      	ldr	r1, [r1, #0]
    3c84:	9a0b      	ldr	r2, [sp, #44]	; 0x2c
    3c86:	1a89      	subs	r1, r1, r2
    3c88:	d101      	bne.n	3c8e <EnsureFrontOfChain+0x103a>
    3c8a:	b00c      	add	sp, #48	; 0x30
    3c8c:	bd10      	pop	{r4, pc}
    3c8e:	f001 f897 	bl	4dc0 <EnsureFrontOfChain+0x216c>
    3c92:	bf00      	nop
    3c94:	3252      	adds	r2, #82	; 0x52
    3c96:	0000      	movs	r0, r0
    3c98:	b510      	push	{r4, lr}
    3c9a:	b08c      	sub	sp, #48	; 0x30
    3c9c:	4c0b      	ldr	r4, [pc, #44]	; (3ccc <EnsureFrontOfChain+0x1078>)
    3c9e:	447c      	add	r4, pc
    3ca0:	6821      	ldr	r1, [r4, #0]
    3ca2:	6809      	ldr	r1, [r1, #0]
    3ca4:	910b      	str	r1, [sp, #44]	; 0x2c
    3ca6:	a901      	add	r1, sp, #4
    3ca8:	f000 f913 	bl	3ed2 <EnsureFrontOfChain+0x127e>
    3cac:	9a01      	ldr	r2, [sp, #4]
    3cae:	4601      	mov	r1, r0
    3cb0:	2000      	movs	r0, #0
    3cb2:	2900      	cmp	r1, #0
    3cb4:	bf08      	it	eq
    3cb6:	4610      	moveq	r0, r2
    3cb8:	6821      	ldr	r1, [r4, #0]
    3cba:	6809      	ldr	r1, [r1, #0]
    3cbc:	9a0b      	ldr	r2, [sp, #44]	; 0x2c
    3cbe:	1a89      	subs	r1, r1, r2
    3cc0:	d101      	bne.n	3cc6 <EnsureFrontOfChain+0x1072>
    3cc2:	b00c      	add	sp, #48	; 0x30
    3cc4:	bd10      	pop	{r4, pc}
    3cc6:	f001 f87b 	bl	4dc0 <EnsureFrontOfChain+0x216c>
    3cca:	bf00      	nop
    3ccc:	321a      	adds	r2, #26
    3cce:	0000      	movs	r0, r0
    3cd0:	4601      	mov	r1, r0
    3cd2:	688a      	ldr	r2, [r1, #8]
    3cd4:	b10a      	cbz	r2, 3cda <EnsureFrontOfChain+0x1086>
    3cd6:	2001      	movs	r0, #1
    3cd8:	4710      	bx	r2
    3cda:	4770      	bx	lr
    3cdc:	b580      	push	{r7, lr}
    3cde:	4608      	mov	r0, r1
    3ce0:	f000 f8f4 	bl	3ecc <EnsureFrontOfChain+0x1278>
    3ce4:	2109      	movs	r1, #9
    3ce6:	2801      	cmp	r0, #1
    3ce8:	bf08      	it	eq
    3cea:	2100      	moveq	r1, #0
    3cec:	4608      	mov	r0, r1
    3cee:	bd80      	pop	{r7, pc}
    3cf0:	1fff      	subs	r7, r7, #7
    3cf2:	e880 d034 	stmia.w	r0, {r2, r4, r5, ip, lr, pc}
    3cf6:	e580      	b.n	37fa <EnsureFrontOfChain+0xba6>
    3cf8:	e038      	b.n	3d6c <EnsureFrontOfChain+0x1118>
    3cfa:	e580      	b.n	37fe <EnsureFrontOfChain+0xbaa>
    3cfc:	e03c      	b.n	3d78 <EnsureFrontOfChain+0x1124>
    3cfe:	e580      	b.n	3802 <EnsureFrontOfChain+0xbae>
    3d00:	0000      	movs	r0, r0
    3d02:	e3a0      	b.n	4446 <EnsureFrontOfChain+0x17f2>
    3d04:	ff1e e12f 	vrhadd.u16	d14, d14, d31
    3d08:	0b20      	lsrs	r0, r4, #12
    3d0a:	ec80 ff1e 	stc	15, cr15, [r0], {30}
    3d0e:	e12f      	b.n	3f70 <EnsureFrontOfChain+0x131c>
    3d10:	0b20      	lsrs	r0, r4, #12
    3d12:	ec80 ff1e 	stc	15, cr15, [r0], {30}
    3d16:	e12f      	b.n	3f78 <EnsureFrontOfChain+0x1324>
    3d18:	0b20      	lsrs	r0, r4, #12
    3d1a:	ecc0 ff1e 	stcl	15, cr15, [r0], {30}
    3d1e:	e12f      	b.n	3f80 <EnsureFrontOfChain+0x132c>
    3d20:	b5b0      	push	{r4, r5, r7, lr}
    3d22:	4a34      	ldr	r2, [pc, #208]	; (3df4 <EnsureFrontOfChain+0x11a0>)
    3d24:	4604      	mov	r4, r0
    3d26:	4832      	ldr	r0, [pc, #200]	; (3df0 <EnsureFrontOfChain+0x119c>)
    3d28:	2500      	movs	r5, #0
    3d2a:	f101 0310 	add.w	r3, r1, #16
    3d2e:	f8a4 5048 	strh.w	r5, [r4, #72]	; 0x48
    3d32:	f884 504a 	strb.w	r5, [r4, #74]	; 0x4a
    3d36:	447a      	add	r2, pc
    3d38:	4478      	add	r0, pc
    3d3a:	3208      	adds	r2, #8
    3d3c:	e9c4 2000 	strd	r2, r0, [r4]
    3d40:	2230      	movs	r2, #48	; 0x30
    3d42:	f101 0020 	add.w	r0, r1, #32
    3d46:	f961 0a02 	vld1.8	{d16-d17}, [r1], r2
    3d4a:	f960 2a0f 	vld1.8	{d18-d19}, [r0]
    3d4e:	f963 4a0f 	vld1.8	{d20-d21}, [r3]
    3d52:	f104 0028 	add.w	r0, r4, #40	; 0x28
    3d56:	f961 6a0f 	vld1.8	{d22-d23}, [r1]
    3d5a:	f940 2a0f 	vst1.8	{d18-d19}, [r0]
    3d5e:	f104 0018 	add.w	r0, r4, #24
    3d62:	2188      	movs	r1, #136	; 0x88
    3d64:	f940 4a0f 	vst1.8	{d20-d21}, [r0]
    3d68:	f104 0008 	add.w	r0, r4, #8
    3d6c:	f940 0a0f 	vst1.8	{d16-d17}, [r0]
    3d70:	f104 0038 	add.w	r0, r4, #56	; 0x38
    3d74:	f940 6a0f 	vst1.8	{d22-d23}, [r0]
    3d78:	f104 0050 	add.w	r0, r4, #80	; 0x50
    3d7c:	f001 f958 	bl	5030 <EnsureFrontOfChain+0x23dc>
    3d80:	efc0 0050 	vmov.i32	q8, #0	; 0x00000000
    3d84:	f504 70a4 	add.w	r0, r4, #328	; 0x148
    3d88:	2100      	movs	r1, #0
    3d8a:	f940 0a0f 	vst1.8	{d16-d17}, [r0]
    3d8e:	f504 709c 	add.w	r0, r4, #312	; 0x138
    3d92:	f940 0a0f 	vst1.8	{d16-d17}, [r0]
    3d96:	f504 7094 	add.w	r0, r4, #296	; 0x128
    3d9a:	f940 0a0f 	vst1.8	{d16-d17}, [r0]
    3d9e:	f504 708c 	add.w	r0, r4, #280	; 0x118
    3da2:	f940 0a0f 	vst1.8	{d16-d17}, [r0]
    3da6:	f504 7084 	add.w	r0, r4, #264	; 0x108
    3daa:	f940 0a0f 	vst1.8	{d16-d17}, [r0]
    3dae:	f104 00f8 	add.w	r0, r4, #248	; 0xf8
    3db2:	f940 0a0f 	vst1.8	{d16-d17}, [r0]
    3db6:	f104 00e8 	add.w	r0, r4, #232	; 0xe8
    3dba:	f940 0a0f 	vst1.8	{d16-d17}, [r0]
    3dbe:	f104 00d8 	add.w	r0, r4, #216	; 0xd8
    3dc2:	f940 0a0f 	vst1.8	{d16-d17}, [r0]
    3dc6:	f504 70b4 	add.w	r0, r4, #360	; 0x168
    3dca:	f8a4 5180 	strh.w	r5, [r4, #384]	; 0x180
    3dce:	f8c4 517c 	str.w	r5, [r4, #380]	; 0x17c
    3dd2:	f8c4 5178 	str.w	r5, [r4, #376]	; 0x178
    3dd6:	f940 0a0f 	vst1.8	{d16-d17}, [r0]
    3dda:	f504 70ac 	add.w	r0, r4, #344	; 0x158
    3dde:	f940 0a0f 	vst1.8	{d16-d17}, [r0]
    3de2:	6820      	ldr	r0, [r4, #0]
    3de4:	6b42      	ldr	r2, [r0, #52]	; 0x34
    3de6:	4620      	mov	r0, r4
    3de8:	4790      	blx	r2
    3dea:	2000      	movs	r0, #0
    3dec:	bdb0      	pop	{r4, r5, r7, pc}
    3dee:	bf00      	nop
    3df0:	4160      	adcs	r0, r4
    3df2:	0000      	movs	r0, r0
    3df4:	2fca      	cmp	r7, #202	; 0xca
    3df6:	0000      	movs	r0, r0
    3df8:	b570      	push	{r4, r5, r6, lr}
    3dfa:	4606      	mov	r6, r0
    3dfc:	4614      	mov	r4, r2
    3dfe:	460d      	mov	r5, r1
    3e00:	6830      	ldr	r0, [r6, #0]
    3e02:	6882      	ldr	r2, [r0, #8]
    3e04:	4630      	mov	r0, r6
    3e06:	4790      	blx	r2
    3e08:	b138      	cbz	r0, 3e1a <EnsureFrontOfChain+0x11c6>
    3e0a:	6830      	ldr	r0, [r6, #0]
    3e0c:	4629      	mov	r1, r5
    3e0e:	68c2      	ldr	r2, [r0, #12]
    3e10:	4630      	mov	r0, r6
    3e12:	4790      	blx	r2
    3e14:	6020      	str	r0, [r4, #0]
    3e16:	2000      	movs	r0, #0
    3e18:	bd70      	pop	{r4, r5, r6, pc}
    3e1a:	f24e 6072 	movw	r0, #58994	; 0xe672
    3e1e:	f6cf 70ff 	movt	r0, #65535	; 0xffff
    3e22:	bd70      	pop	{r4, r5, r6, pc}
    3e24:	b570      	push	{r4, r5, r6, lr}
    3e26:	4604      	mov	r4, r0
    3e28:	4616      	mov	r6, r2
    3e2a:	460d      	mov	r5, r1
    3e2c:	6820      	ldr	r0, [r4, #0]
    3e2e:	6882      	ldr	r2, [r0, #8]
    3e30:	4620      	mov	r0, r4
    3e32:	4790      	blx	r2
    3e34:	b150      	cbz	r0, 3e4c <EnsureFrontOfChain+0x11f8>
    3e36:	6820      	ldr	r0, [r4, #0]
    3e38:	4629      	mov	r1, r5
    3e3a:	4632      	mov	r2, r6
    3e3c:	6903      	ldr	r3, [r0, #16]
    3e3e:	4620      	mov	r0, r4
    3e40:	4798      	blx	r3
    3e42:	1c68      	adds	r0, r5, #1
    3e44:	d008      	beq.n	3e58 <EnsureFrontOfChain+0x1204>
    3e46:	2500      	movs	r5, #0
    3e48:	4628      	mov	r0, r5
    3e4a:	bd70      	pop	{r4, r5, r6, pc}
    3e4c:	f24e 6572 	movw	r5, #58994	; 0xe672
    3e50:	f6cf 75ff 	movt	r5, #65535	; 0xffff
    3e54:	4628      	mov	r0, r5
    3e56:	bd70      	pop	{r4, r5, r6, pc}
    3e58:	6820      	ldr	r0, [r4, #0]
    3e5a:	2100      	movs	r1, #0
    3e5c:	2500      	movs	r5, #0
    3e5e:	6b42      	ldr	r2, [r0, #52]	; 0x34
    3e60:	4620      	mov	r0, r4
    3e62:	4790      	blx	r2
    3e64:	4628      	mov	r0, r5
    3e66:	bd70      	pop	{r4, r5, r6, pc}
    3e68:	b570      	push	{r4, r5, r6, lr}
    3e6a:	4606      	mov	r6, r0
    3e6c:	4614      	mov	r4, r2
    3e6e:	460d      	mov	r5, r1
    3e70:	6830      	ldr	r0, [r6, #0]
    3e72:	6942      	ldr	r2, [r0, #20]
    3e74:	4630      	mov	r0, r6
    3e76:	4790      	blx	r2
    3e78:	b140      	cbz	r0, 3e8c <EnsureFrontOfChain+0x1238>
    3e7a:	6830      	ldr	r0, [r6, #0]
    3e7c:	4629      	mov	r1, r5
    3e7e:	6982      	ldr	r2, [r0, #24]
    3e80:	4630      	mov	r0, r6
    3e82:	4790      	blx	r2
    3e84:	e9c4 0100 	strd	r0, r1, [r4]
    3e88:	2000      	movs	r0, #0
    3e8a:	bd70      	pop	{r4, r5, r6, pc}
    3e8c:	f24e 6072 	movw	r0, #58994	; 0xe672
    3e90:	f6cf 70ff 	movt	r0, #65535	; 0xffff
    3e94:	bd70      	pop	{r4, r5, r6, pc}
    3e96:	e92d 41f0 	stmdb	sp!, {r4, r5, r6, r7, r8, lr}
    3e9a:	4607      	mov	r7, r0
    3e9c:	4615      	mov	r5, r2
    3e9e:	4698      	mov	r8, r3
    3ea0:	460e      	mov	r6, r1
    3ea2:	6838      	ldr	r0, [r7, #0]
    3ea4:	6942      	ldr	r2, [r0, #20]
    3ea6:	4638      	mov	r0, r7
    3ea8:	4790      	blx	r2
    3eaa:	b148      	cbz	r0, 3ec0 <EnsureFrontOfChain+0x126c>
    3eac:	6838      	ldr	r0, [r7, #0]
    3eae:	4631      	mov	r1, r6
    3eb0:	462a      	mov	r2, r5
    3eb2:	4643      	mov	r3, r8
    3eb4:	69c4      	ldr	r4, [r0, #28]
    3eb6:	4638      	mov	r0, r7
    3eb8:	47a0      	blx	r4
    3eba:	2000      	movs	r0, #0
    3ebc:	e8bd 81f0 	ldmia.w	sp!, {r4, r5, r6, r7, r8, pc}
    3ec0:	f24e 6072 	movw	r0, #58994	; 0xe672
    3ec4:	f6cf 70ff 	movt	r0, #65535	; 0xffff
    3ec8:	e8bd 81f0 	ldmia.w	sp!, {r4, r5, r6, r7, r8, pc}
    3ecc:	6801      	ldr	r1, [r0, #0]
    3ece:	6a09      	ldr	r1, [r1, #32]
    3ed0:	4708      	bx	r1
    3ed2:	b510      	push	{r4, lr}
    3ed4:	460c      	mov	r4, r1
    3ed6:	6801      	ldr	r1, [r0, #0]
    3ed8:	6a4a      	ldr	r2, [r1, #36]	; 0x24
    3eda:	4621      	mov	r1, r4
    3edc:	4790      	blx	r2
    3ede:	6861      	ldr	r1, [r4, #4]
    3ee0:	2000      	movs	r0, #0
    3ee2:	2900      	cmp	r1, #0
    3ee4:	bf08      	it	eq
    3ee6:	f24e 606b 	movweq	r0, #58987	; 0xe66b
    3eea:	bf08      	it	eq
    3eec:	f6cf 70ff 	movteq	r0, #65535	; 0xffff
    3ef0:	bd10      	pop	{r4, pc}
    3ef2:	b580      	push	{r7, lr}
    3ef4:	6801      	ldr	r1, [r0, #0]
    3ef6:	6a89      	ldr	r1, [r1, #40]	; 0x28
    3ef8:	4788      	blx	r1
    3efa:	f24e 6074 	movw	r0, #58996	; 0xe674
    3efe:	f6cf 70ff 	movt	r0, #65535	; 0xffff
    3f02:	bd80      	pop	{r7, pc}
    3f04:	6801      	ldr	r1, [r0, #0]
    3f06:	6bc9      	ldr	r1, [r1, #60]	; 0x3c
    3f08:	4708      	bx	r1
    3f0a:	3910      	subs	r1, #16
    3f0c:	2000      	movs	r0, #0
    3f0e:	f111 0f13 	cmn.w	r1, #19
    3f12:	bf88      	it	hi
    3f14:	2001      	movhi	r0, #1
    3f16:	4770      	bx	lr
    3f18:	1c8a      	adds	r2, r1, #2
    3f1a:	2a11      	cmp	r2, #17
    3f1c:	d813      	bhi.n	3f46 <EnsureFrontOfChain+0x12f2>
    3f1e:	e8df f002 	tbb	[pc, r2]
    3f22:	0c09      	lsrs	r1, r1, #16
    3f24:	1212      	asrs	r2, r2, #8
    3f26:	1212      	asrs	r2, r2, #8
    3f28:	1212      	asrs	r2, r2, #8
    3f2a:	1212      	asrs	r2, r2, #8
    3f2c:	1212      	asrs	r2, r2, #8
    3f2e:	1212      	asrs	r2, r2, #8
    3f30:	0912      	lsrs	r2, r2, #4
    3f32:	0c0f      	lsrs	r7, r1, #16
    3f34:	303c      	adds	r0, #60	; 0x3c
    3f36:	6800      	ldr	r0, [r0, #0]
    3f38:	4770      	bx	lr
    3f3a:	3044      	adds	r0, #68	; 0x44
    3f3c:	6800      	ldr	r0, [r0, #0]
    3f3e:	4770      	bx	lr
    3f40:	3040      	adds	r0, #64	; 0x40
    3f42:	6800      	ldr	r0, [r0, #0]
    3f44:	4770      	bx	lr
    3f46:	290c      	cmp	r1, #12
    3f48:	d804      	bhi.n	3f54 <EnsureFrontOfChain+0x1300>
    3f4a:	eb00 0081 	add.w	r0, r0, r1, lsl #2
    3f4e:	3008      	adds	r0, #8
    3f50:	6800      	ldr	r0, [r0, #0]
    3f52:	4770      	bx	lr
    3f54:	b510      	push	{r4, lr}
    3f56:	b082      	sub	sp, #8
    3f58:	f44f 60c3 	mov.w	r0, #1560	; 0x618
    3f5c:	490d      	ldr	r1, [pc, #52]	; (3f94 <EnsureFrontOfChain+0x1340>)
    3f5e:	4a0e      	ldr	r2, [pc, #56]	; (3f98 <EnsureFrontOfChain+0x1344>)
    3f60:	4b0e      	ldr	r3, [pc, #56]	; (3f9c <EnsureFrontOfChain+0x1348>)
    3f62:	9000      	str	r0, [sp, #0]
    3f64:	4809      	ldr	r0, [pc, #36]	; (3f8c <EnsureFrontOfChain+0x1338>)
    3f66:	4479      	add	r1, pc
    3f68:	447a      	add	r2, pc
    3f6a:	447b      	add	r3, pc
    3f6c:	4478      	add	r0, pc
    3f6e:	9001      	str	r0, [sp, #4]
    3f70:	4807      	ldr	r0, [pc, #28]	; (3f90 <EnsureFrontOfChain+0x133c>)
    3f72:	4478      	add	r0, pc
    3f74:	6800      	ldr	r0, [r0, #0]
    3f76:	f100 04a8 	add.w	r4, r0, #168	; 0xa8
    3f7a:	4620      	mov	r0, r4
    3f7c:	f001 f840 	bl	5000 <EnsureFrontOfChain+0x23ac>
    3f80:	4620      	mov	r0, r4
    3f82:	f001 f845 	bl	5010 <EnsureFrontOfChain+0x23bc>
    3f86:	f000 fff3 	bl	4f70 <EnsureFrontOfChain+0x231c>
    3f8a:	bf00      	nop
    3f8c:	19e8      	adds	r0, r5, r7
    3f8e:	0000      	movs	r0, r0
    3f90:	2f4e      	cmp	r7, #78	; 0x4e
    3f92:	0000      	movs	r0, r0
    3f94:	1852      	adds	r2, r2, r1
    3f96:	0000      	movs	r0, r0
    3f98:	19b6      	adds	r6, r6, r6
    3f9a:	0000      	movs	r0, r0
    3f9c:	19c0      	adds	r0, r0, r7
    3f9e:	0000      	movs	r0, r0
    3fa0:	b510      	push	{r4, lr}
    3fa2:	b082      	sub	sp, #8
    3fa4:	1c8b      	adds	r3, r1, #2
    3fa6:	2b11      	cmp	r3, #17
    3fa8:	d813      	bhi.n	3fd2 <EnsureFrontOfChain+0x137e>
    3faa:	e8df f003 	tbb	[pc, r3]
    3fae:	0c09      	lsrs	r1, r1, #16
    3fb0:	1212      	asrs	r2, r2, #8
    3fb2:	1212      	asrs	r2, r2, #8
    3fb4:	1212      	asrs	r2, r2, #8
    3fb6:	1212      	asrs	r2, r2, #8
    3fb8:	1212      	asrs	r2, r2, #8
    3fba:	1212      	asrs	r2, r2, #8
    3fbc:	0912      	lsrs	r2, r2, #4
    3fbe:	0c0f      	lsrs	r7, r1, #16
    3fc0:	63c2      	str	r2, [r0, #60]	; 0x3c
    3fc2:	b002      	add	sp, #8
    3fc4:	bd10      	pop	{r4, pc}
    3fc6:	6442      	str	r2, [r0, #68]	; 0x44
    3fc8:	b002      	add	sp, #8
    3fca:	bd10      	pop	{r4, pc}
    3fcc:	6402      	str	r2, [r0, #64]	; 0x40
    3fce:	b002      	add	sp, #8
    3fd0:	bd10      	pop	{r4, pc}
    3fd2:	290c      	cmp	r1, #12
    3fd4:	d804      	bhi.n	3fe0 <EnsureFrontOfChain+0x138c>
    3fd6:	eb00 0081 	add.w	r0, r0, r1, lsl #2
    3fda:	6082      	str	r2, [r0, #8]
    3fdc:	b002      	add	sp, #8
    3fde:	bd10      	pop	{r4, pc}
    3fe0:	f240 603b 	movw	r0, #1595	; 0x63b
    3fe4:	490d      	ldr	r1, [pc, #52]	; (401c <EnsureFrontOfChain+0x13c8>)
    3fe6:	4a0e      	ldr	r2, [pc, #56]	; (4020 <EnsureFrontOfChain+0x13cc>)
    3fe8:	4b0e      	ldr	r3, [pc, #56]	; (4024 <EnsureFrontOfChain+0x13d0>)
    3fea:	9000      	str	r0, [sp, #0]
    3fec:	4809      	ldr	r0, [pc, #36]	; (4014 <EnsureFrontOfChain+0x13c0>)
    3fee:	4479      	add	r1, pc
    3ff0:	447a      	add	r2, pc
    3ff2:	447b      	add	r3, pc
    3ff4:	4478      	add	r0, pc
    3ff6:	9001      	str	r0, [sp, #4]
    3ff8:	4807      	ldr	r0, [pc, #28]	; (4018 <EnsureFrontOfChain+0x13c4>)
    3ffa:	4478      	add	r0, pc
    3ffc:	6800      	ldr	r0, [r0, #0]
    3ffe:	f100 04a8 	add.w	r4, r0, #168	; 0xa8
    4002:	4620      	mov	r0, r4
    4004:	f000 fffc 	bl	5000 <EnsureFrontOfChain+0x23ac>
    4008:	4620      	mov	r0, r4
    400a:	f001 f801 	bl	5010 <EnsureFrontOfChain+0x23bc>
    400e:	f000 ffaf 	bl	4f70 <EnsureFrontOfChain+0x231c>
    4012:	bf00      	nop
    4014:	1960      	adds	r0, r4, r5
    4016:	0000      	movs	r0, r0
    4018:	2ec6      	cmp	r6, #198	; 0xc6
    401a:	0000      	movs	r0, r0
    401c:	17ca      	asrs	r2, r1, #31
    401e:	0000      	movs	r0, r0
    4020:	197d      	adds	r5, r7, r5
    4022:	0000      	movs	r0, r0
    4024:	1938      	adds	r0, r7, r4
    4026:	0000      	movs	r0, r0
    4028:	f021 011f 	bic.w	r1, r1, #31
    402c:	2000      	movs	r0, #0
    402e:	f5b1 7f80 	cmp.w	r1, #256	; 0x100
    4032:	bf08      	it	eq
    4034:	2001      	moveq	r0, #1
    4036:	4770      	bx	lr
    4038:	b5b0      	push	{r4, r5, r7, lr}
    403a:	b082      	sub	sp, #8
    403c:	460c      	mov	r4, r1
    403e:	4605      	mov	r5, r0
    4040:	f024 000f 	bic.w	r0, r4, #15
    4044:	f5b0 7f88 	cmp.w	r0, #272	; 0x110
    4048:	d010      	beq.n	406c <EnsureFrontOfChain+0x1418>
    404a:	f5b0 7f80 	cmp.w	r0, #256	; 0x100
    404e:	d126      	bne.n	409e <EnsureFrontOfChain+0x144a>
    4050:	f895 0049 	ldrb.w	r0, [r5, #73]	; 0x49
    4054:	b9d8      	cbnz	r0, 408e <EnsureFrontOfChain+0x143a>
    4056:	2001      	movs	r0, #1
    4058:	f885 0049 	strb.w	r0, [r5, #73]	; 0x49
    405c:	f105 0050 	add.w	r0, r5, #80	; 0x50
    4060:	f895 1048 	ldrb.w	r1, [r5, #72]	; 0x48
    4064:	b189      	cbz	r1, 408a <EnsureFrontOfChain+0x1436>
    4066:	f000 ffeb 	bl	5040 <EnsureFrontOfChain+0x23ec>
    406a:	e010      	b.n	408e <EnsureFrontOfChain+0x143a>
    406c:	f895 004a 	ldrb.w	r0, [r5, #74]	; 0x4a
    4070:	b930      	cbnz	r0, 4080 <EnsureFrontOfChain+0x142c>
    4072:	2001      	movs	r0, #1
    4074:	f885 004a 	strb.w	r0, [r5, #74]	; 0x4a
    4078:	f105 00d8 	add.w	r0, r5, #216	; 0xd8
    407c:	f000 ffe8 	bl	5050 <EnsureFrontOfChain+0x23fc>
    4080:	eb05 00c4 	add.w	r0, r5, r4, lsl #3
    4084:	f5a0 60f5 	sub.w	r0, r0, #1960	; 0x7a8
    4088:	e005      	b.n	4096 <EnsureFrontOfChain+0x1442>
    408a:	f000 ffe9 	bl	5060 <EnsureFrontOfChain+0x240c>
    408e:	eb05 00c4 	add.w	r0, r5, r4, lsl #3
    4092:	f5a0 60f6 	sub.w	r0, r0, #1968	; 0x7b0
    4096:	e9d0 0100 	ldrd	r0, r1, [r0]
    409a:	b002      	add	sp, #8
    409c:	bdb0      	pop	{r4, r5, r7, pc}
    409e:	f240 700f 	movw	r0, #1807	; 0x70f
    40a2:	490d      	ldr	r1, [pc, #52]	; (40d8 <EnsureFrontOfChain+0x1484>)
    40a4:	4a0d      	ldr	r2, [pc, #52]	; (40dc <EnsureFrontOfChain+0x1488>)
    40a6:	4b0e      	ldr	r3, [pc, #56]	; (40e0 <EnsureFrontOfChain+0x148c>)
    40a8:	9000      	str	r0, [sp, #0]
    40aa:	4809      	ldr	r0, [pc, #36]	; (40d0 <EnsureFrontOfChain+0x147c>)
    40ac:	4479      	add	r1, pc
    40ae:	447a      	add	r2, pc
    40b0:	447b      	add	r3, pc
    40b2:	4478      	add	r0, pc
    40b4:	9001      	str	r0, [sp, #4]
    40b6:	4807      	ldr	r0, [pc, #28]	; (40d4 <EnsureFrontOfChain+0x1480>)
    40b8:	4478      	add	r0, pc
    40ba:	6800      	ldr	r0, [r0, #0]
    40bc:	f100 04a8 	add.w	r4, r0, #168	; 0xa8
    40c0:	4620      	mov	r0, r4
    40c2:	f000 ff9d 	bl	5000 <EnsureFrontOfChain+0x23ac>
    40c6:	4620      	mov	r0, r4
    40c8:	f000 ffa2 	bl	5010 <EnsureFrontOfChain+0x23bc>
    40cc:	f000 ff50 	bl	4f70 <EnsureFrontOfChain+0x231c>
    40d0:	18d8      	adds	r0, r3, r3
    40d2:	0000      	movs	r0, r0
    40d4:	2e08      	cmp	r6, #8
    40d6:	0000      	movs	r0, r0
    40d8:	170c      	asrs	r4, r1, #28
    40da:	0000      	movs	r0, r0
    40dc:	18cb      	adds	r3, r1, r3
    40de:	0000      	movs	r0, r0
    40e0:	187a      	adds	r2, r7, r1
    40e2:	0000      	movs	r0, r0
    40e4:	b5f0      	push	{r4, r5, r6, r7, lr}
    40e6:	b083      	sub	sp, #12
    40e8:	460e      	mov	r6, r1
    40ea:	4607      	mov	r7, r0
    40ec:	461d      	mov	r5, r3
    40ee:	4614      	mov	r4, r2
    40f0:	f026 000f 	bic.w	r0, r6, #15
    40f4:	f5b0 7f88 	cmp.w	r0, #272	; 0x110
    40f8:	d010      	beq.n	411c <EnsureFrontOfChain+0x14c8>
    40fa:	f5b0 7f80 	cmp.w	r0, #256	; 0x100
    40fe:	d131      	bne.n	4164 <EnsureFrontOfChain+0x1510>
    4100:	f897 0049 	ldrb.w	r0, [r7, #73]	; 0x49
    4104:	bb00      	cbnz	r0, 4148 <EnsureFrontOfChain+0x14f4>
    4106:	2001      	movs	r0, #1
    4108:	f887 0049 	strb.w	r0, [r7, #73]	; 0x49
    410c:	f107 0050 	add.w	r0, r7, #80	; 0x50
    4110:	f897 1048 	ldrb.w	r1, [r7, #72]	; 0x48
    4114:	b1b1      	cbz	r1, 4144 <EnsureFrontOfChain+0x14f0>
    4116:	f000 ff93 	bl	5040 <EnsureFrontOfChain+0x23ec>
    411a:	e015      	b.n	4148 <EnsureFrontOfChain+0x14f4>
    411c:	f897 004a 	ldrb.w	r0, [r7, #74]	; 0x4a
    4120:	b930      	cbnz	r0, 4130 <EnsureFrontOfChain+0x14dc>
    4122:	2001      	movs	r0, #1
    4124:	f887 004a 	strb.w	r0, [r7, #74]	; 0x4a
    4128:	f107 00d8 	add.w	r0, r7, #216	; 0xd8
    412c:	f000 ff90 	bl	5050 <EnsureFrontOfChain+0x23fc>
    4130:	f64f 015c 	movw	r1, #63580	; 0xf85c
    4134:	eb07 00c6 	add.w	r0, r7, r6, lsl #3
    4138:	f6cf 71ff 	movt	r1, #65535	; 0xffff
    413c:	5045      	str	r5, [r0, r1]
    413e:	f64f 0158 	movw	r1, #63576	; 0xf858
    4142:	e00a      	b.n	415a <EnsureFrontOfChain+0x1506>
    4144:	f000 ff8c 	bl	5060 <EnsureFrontOfChain+0x240c>
    4148:	f64f 0154 	movw	r1, #63572	; 0xf854
    414c:	eb07 00c6 	add.w	r0, r7, r6, lsl #3
    4150:	f6cf 71ff 	movt	r1, #65535	; 0xffff
    4154:	5045      	str	r5, [r0, r1]
    4156:	f64f 0150 	movw	r1, #63568	; 0xf850
    415a:	f6cf 71ff 	movt	r1, #65535	; 0xffff
    415e:	5044      	str	r4, [r0, r1]
    4160:	b003      	add	sp, #12
    4162:	bdf0      	pop	{r4, r5, r6, r7, pc}
    4164:	f240 7033 	movw	r0, #1843	; 0x733
    4168:	490d      	ldr	r1, [pc, #52]	; (41a0 <EnsureFrontOfChain+0x154c>)
    416a:	4a0e      	ldr	r2, [pc, #56]	; (41a4 <EnsureFrontOfChain+0x1550>)
    416c:	4b0e      	ldr	r3, [pc, #56]	; (41a8 <EnsureFrontOfChain+0x1554>)
    416e:	9000      	str	r0, [sp, #0]
    4170:	4809      	ldr	r0, [pc, #36]	; (4198 <EnsureFrontOfChain+0x1544>)
    4172:	4479      	add	r1, pc
    4174:	447a      	add	r2, pc
    4176:	447b      	add	r3, pc
    4178:	4478      	add	r0, pc
    417a:	9001      	str	r0, [sp, #4]
    417c:	4807      	ldr	r0, [pc, #28]	; (419c <EnsureFrontOfChain+0x1548>)
    417e:	4478      	add	r0, pc
    4180:	6800      	ldr	r0, [r0, #0]
    4182:	f100 04a8 	add.w	r4, r0, #168	; 0xa8
    4186:	4620      	mov	r0, r4
    4188:	f000 ff3a 	bl	5000 <EnsureFrontOfChain+0x23ac>
    418c:	4620      	mov	r0, r4
    418e:	f000 ff3f 	bl	5010 <EnsureFrontOfChain+0x23bc>
    4192:	f000 feed 	bl	4f70 <EnsureFrontOfChain+0x231c>
    4196:	bf00      	nop
    4198:	1812      	adds	r2, r2, r0
    419a:	0000      	movs	r0, r0
    419c:	2d42      	cmp	r5, #66	; 0x42
    419e:	0000      	movs	r0, r0
    41a0:	1646      	asrs	r6, r0, #25
    41a2:	0000      	movs	r0, r0
    41a4:	1831      	adds	r1, r6, r0
    41a6:	0000      	movs	r0, r0
    41a8:	17b4      	asrs	r4, r6, #30
    41aa:	0000      	movs	r0, r0
    41ac:	b570      	push	{r4, r5, r6, lr}
    41ae:	b084      	sub	sp, #16
    41b0:	4e1f      	ldr	r6, [pc, #124]	; (4230 <EnsureFrontOfChain+0x15dc>)
    41b2:	4604      	mov	r4, r0
    41b4:	2500      	movs	r5, #0
    41b6:	447e      	add	r6, pc
    41b8:	6830      	ldr	r0, [r6, #0]
    41ba:	6800      	ldr	r0, [r0, #0]
    41bc:	9003      	str	r0, [sp, #12]
    41be:	f894 0180 	ldrb.w	r0, [r4, #384]	; 0x180
    41c2:	bb58      	cbnz	r0, 421c <EnsureFrontOfChain+0x15c8>
    41c4:	e9cd 5501 	strd	r5, r5, [sp, #4]
    41c8:	f8d4 0178 	ldr.w	r0, [r4, #376]	; 0x178
    41cc:	a901      	add	r1, sp, #4
    41ce:	aa02      	add	r2, sp, #8
    41d0:	f7fe fe80 	bl	2ed4 <EnsureFrontOfChain+0x280>
    41d4:	e9dd 2301 	ldrd	r2, r3, [sp, #4]
    41d8:	4601      	mov	r1, r0
    41da:	4620      	mov	r0, r4
    41dc:	f7fe fea2 	bl	2f24 <EnsureFrontOfChain+0x2d0>
    41e0:	2808      	cmp	r0, #8
    41e2:	d11b      	bne.n	421c <EnsureFrontOfChain+0x15c8>
    41e4:	6820      	ldr	r0, [r4, #0]
    41e6:	2101      	movs	r1, #1
    41e8:	6b42      	ldr	r2, [r0, #52]	; 0x34
    41ea:	4620      	mov	r0, r4
    41ec:	4790      	blx	r2
    41ee:	f894 0180 	ldrb.w	r0, [r4, #384]	; 0x180
    41f2:	b108      	cbz	r0, 41f8 <EnsureFrontOfChain+0x15a4>
    41f4:	2500      	movs	r5, #0
    41f6:	e011      	b.n	421c <EnsureFrontOfChain+0x15c8>
    41f8:	f8d4 0168 	ldr.w	r0, [r4, #360]	; 0x168
    41fc:	b168      	cbz	r0, 421a <EnsureFrontOfChain+0x15c6>
    41fe:	6820      	ldr	r0, [r4, #0]
    4200:	f06f 0101 	mvn.w	r1, #1
    4204:	e9d0 2503 	ldrd	r2, r5, [r0, #12]
    4208:	4620      	mov	r0, r4
    420a:	4790      	blx	r2
    420c:	f8d4 1168 	ldr.w	r1, [r4, #360]	; 0x168
    4210:	180a      	adds	r2, r1, r0
    4212:	4620      	mov	r0, r4
    4214:	f06f 0101 	mvn.w	r1, #1
    4218:	47a8      	blx	r5
    421a:	2501      	movs	r5, #1
    421c:	6830      	ldr	r0, [r6, #0]
    421e:	6800      	ldr	r0, [r0, #0]
    4220:	9903      	ldr	r1, [sp, #12]
    4222:	1a40      	subs	r0, r0, r1
    4224:	d102      	bne.n	422c <EnsureFrontOfChain+0x15d8>
    4226:	4628      	mov	r0, r5
    4228:	b004      	add	sp, #16
    422a:	bd70      	pop	{r4, r5, r6, pc}
    422c:	f000 fdc8 	bl	4dc0 <EnsureFrontOfChain+0x216c>
    4230:	2d02      	cmp	r5, #2
    4232:	0000      	movs	r0, r0
    4234:	f500 73ac 	add.w	r3, r0, #344	; 0x158
    4238:	f500 72b4 	add.w	r2, r0, #360	; 0x168
    423c:	edd0 4b5e 	vldr	d20, [r0, #376]	; 0x178
    4240:	2020      	movs	r0, #32
    4242:	f963 2a8f 	vld1.32	{d18-d19}, [r3]
    4246:	f962 0a8f 	vld1.32	{d16-d17}, [r2]
    424a:	f101 0210 	add.w	r2, r1, #16
    424e:	f941 2a80 	vst1.32	{d18-d19}, [r1], r0
    4252:	f942 0a8f 	vst1.32	{d16-d17}, [r2]
    4256:	edc1 4b00 	vstr	d20, [r1]
    425a:	4770      	bx	lr
    425c:	b5b0      	push	{r4, r5, r7, lr}
    425e:	4605      	mov	r5, r0
    4260:	f895 0049 	ldrb.w	r0, [r5, #73]	; 0x49
    4264:	f105 0408 	add.w	r4, r5, #8
    4268:	b148      	cbz	r0, 427e <EnsureFrontOfChain+0x162a>
    426a:	f895 1048 	ldrb.w	r1, [r5, #72]	; 0x48
    426e:	f105 0050 	add.w	r0, r5, #80	; 0x50
    4272:	b111      	cbz	r1, 427a <EnsureFrontOfChain+0x1626>
    4274:	f000 fefc 	bl	5070 <EnsureFrontOfChain+0x241c>
    4278:	e001      	b.n	427e <EnsureFrontOfChain+0x162a>
    427a:	f000 ff01 	bl	5080 <EnsureFrontOfChain+0x242c>
    427e:	f895 004a 	ldrb.w	r0, [r5, #74]	; 0x4a
    4282:	b118      	cbz	r0, 428c <EnsureFrontOfChain+0x1638>
    4284:	f105 00d8 	add.w	r0, r5, #216	; 0xd8
    4288:	f000 ff02 	bl	5090 <EnsureFrontOfChain+0x243c>
    428c:	4620      	mov	r0, r4
    428e:	e8bd 40b0 	ldmia.w	sp!, {r4, r5, r7, lr}
    4292:	f000 bf05 	b.w	50a0 <EnsureFrontOfChain+0x244c>
    4296:	f890 0181 	ldrb.w	r0, [r0, #385]	; 0x181
    429a:	4770      	bx	lr
    429c:	e92d 41f0 	stmdb	sp!, {r4, r5, r6, r7, r8, lr}
    42a0:	b086      	sub	sp, #24
    42a2:	f8df 805c 	ldr.w	r8, [pc, #92]	; 4300 <EnsureFrontOfChain+0x16ac>
    42a6:	460e      	mov	r6, r1
    42a8:	4615      	mov	r5, r2
    42aa:	461c      	mov	r4, r3
    42ac:	44f8      	add	r8, pc
    42ae:	f8d8 1000 	ldr.w	r1, [r8]
    42b2:	6809      	ldr	r1, [r1, #0]
    42b4:	9105      	str	r1, [sp, #20]
    42b6:	6801      	ldr	r1, [r0, #0]
    42b8:	68ca      	ldr	r2, [r1, #12]
    42ba:	f04f 31ff 	mov.w	r1, #4294967295	; 0xffffffff
    42be:	4790      	blx	r2
    42c0:	a901      	add	r1, sp, #4
    42c2:	4607      	mov	r7, r0
    42c4:	f000 fef4 	bl	50b0 <EnsureFrontOfChain+0x245c>
    42c8:	b168      	cbz	r0, 42e6 <EnsureFrontOfChain+0x1692>
    42ca:	9803      	ldr	r0, [sp, #12]
    42cc:	b158      	cbz	r0, 42e6 <EnsureFrontOfChain+0x1692>
    42ce:	9000      	str	r0, [sp, #0]
    42d0:	4630      	mov	r0, r6
    42d2:	f04f 31ff 	mov.w	r1, #4294967295	; 0xffffffff
    42d6:	462a      	mov	r2, r5
    42d8:	f000 f856 	bl	4388 <EnsureFrontOfChain+0x1734>
    42dc:	9804      	ldr	r0, [sp, #16]
    42de:	1a38      	subs	r0, r7, r0
    42e0:	6020      	str	r0, [r4, #0]
    42e2:	2001      	movs	r0, #1
    42e4:	e000      	b.n	42e8 <EnsureFrontOfChain+0x1694>
    42e6:	2000      	movs	r0, #0
    42e8:	f8d8 1000 	ldr.w	r1, [r8]
    42ec:	6809      	ldr	r1, [r1, #0]
    42ee:	9a05      	ldr	r2, [sp, #20]
    42f0:	1a89      	subs	r1, r1, r2
    42f2:	d102      	bne.n	42fa <EnsureFrontOfChain+0x16a6>
    42f4:	b006      	add	sp, #24
    42f6:	e8bd 81f0 	ldmia.w	sp!, {r4, r5, r6, r7, r8, pc}
    42fa:	f000 fd61 	bl	4dc0 <EnsureFrontOfChain+0x216c>
    42fe:	bf00      	nop
    4300:	2c0c      	cmp	r4, #12
    4302:	0000      	movs	r0, r0
    4304:	b570      	push	{r4, r5, r6, lr}
    4306:	b086      	sub	sp, #24
    4308:	4e19      	ldr	r6, [pc, #100]	; (4370 <EnsureFrontOfChain+0x171c>)
    430a:	4604      	mov	r4, r0
    430c:	460d      	mov	r5, r1
    430e:	f04f 31ff 	mov.w	r1, #4294967295	; 0xffffffff
    4312:	447e      	add	r6, pc
    4314:	6830      	ldr	r0, [r6, #0]
    4316:	6800      	ldr	r0, [r0, #0]
    4318:	9005      	str	r0, [sp, #20]
    431a:	6820      	ldr	r0, [r4, #0]
    431c:	68c2      	ldr	r2, [r0, #12]
    431e:	4620      	mov	r0, r4
    4320:	4790      	blx	r2
    4322:	f020 0001 	bic.w	r0, r0, #1
    4326:	6861      	ldr	r1, [r4, #4]
    4328:	466a      	mov	r2, sp
    432a:	1b45      	subs	r5, r0, r5
    432c:	4811      	ldr	r0, [pc, #68]	; (4374 <EnsureFrontOfChain+0x1720>)
    432e:	9203      	str	r2, [sp, #12]
    4330:	9504      	str	r5, [sp, #16]
    4332:	9102      	str	r1, [sp, #8]
    4334:	a902      	add	r1, sp, #8
    4336:	4478      	add	r0, pc
    4338:	f000 fec2 	bl	50c0 <EnsureFrontOfChain+0x246c>
    433c:	2800      	cmp	r0, #0
    433e:	bf18      	it	ne
    4340:	9800      	ldrne	r0, [sp, #0]
    4342:	bf18      	it	ne
    4344:	2800      	cmpne	r0, #0
    4346:	d109      	bne.n	435c <EnsureFrontOfChain+0x1708>
    4348:	2001      	movs	r0, #1
    434a:	f884 0180 	strb.w	r0, [r4, #384]	; 0x180
    434e:	6830      	ldr	r0, [r6, #0]
    4350:	6800      	ldr	r0, [r0, #0]
    4352:	9905      	ldr	r1, [sp, #20]
    4354:	1a40      	subs	r0, r0, r1
    4356:	d109      	bne.n	436c <EnsureFrontOfChain+0x1718>
    4358:	b006      	add	sp, #24
    435a:	bd70      	pop	{r4, r5, r6, pc}
    435c:	466a      	mov	r2, sp
    435e:	4620      	mov	r0, r4
    4360:	4629      	mov	r1, r5
    4362:	f000 f831 	bl	43c8 <EnsureFrontOfChain+0x1774>
    4366:	2800      	cmp	r0, #0
    4368:	d0ee      	beq.n	4348 <EnsureFrontOfChain+0x16f4>
    436a:	e7f0      	b.n	434e <EnsureFrontOfChain+0x16fa>
    436c:	f000 fd28 	bl	4dc0 <EnsureFrontOfChain+0x216c>
    4370:	2ba6      	cmp	r3, #166	; 0xa6
    4372:	0000      	movs	r0, r0
    4374:	0267      	lsls	r7, r4, #9
    4376:	0000      	movs	r0, r0
    4378:	3008      	adds	r0, #8
    437a:	f000 b955 	b.w	4628 <EnsureFrontOfChain+0x19d4>
    437e:	2101      	movs	r1, #1
    4380:	f880 1048 	strb.w	r1, [r0, #72]	; 0x48
    4384:	4770      	bx	lr
    4386:	0000      	movs	r0, r0
    4388:	b510      	push	{r4, lr}
    438a:	b084      	sub	sp, #16
    438c:	4c0c      	ldr	r4, [pc, #48]	; (43c0 <EnsureFrontOfChain+0x176c>)
    438e:	460b      	mov	r3, r1
    4390:	447c      	add	r4, pc
    4392:	6821      	ldr	r1, [r4, #0]
    4394:	6809      	ldr	r1, [r1, #0]
    4396:	9103      	str	r1, [sp, #12]
    4398:	a906      	add	r1, sp, #24
    439a:	e9cd 1101 	strd	r1, r1, [sp, #4]
    439e:	4909      	ldr	r1, [pc, #36]	; (43c4 <EnsureFrontOfChain+0x1770>)
    43a0:	4479      	add	r1, pc
    43a2:	9100      	str	r1, [sp, #0]
    43a4:	4611      	mov	r1, r2
    43a6:	2200      	movs	r2, #0
    43a8:	f000 fd9a 	bl	4ee0 <EnsureFrontOfChain+0x228c>
    43ac:	6820      	ldr	r0, [r4, #0]
    43ae:	6800      	ldr	r0, [r0, #0]
    43b0:	9903      	ldr	r1, [sp, #12]
    43b2:	1a40      	subs	r0, r0, r1
    43b4:	d101      	bne.n	43ba <EnsureFrontOfChain+0x1766>
    43b6:	b004      	add	sp, #16
    43b8:	bd10      	pop	{r4, pc}
    43ba:	f000 fd01 	bl	4dc0 <EnsureFrontOfChain+0x216c>
    43be:	bf00      	nop
    43c0:	2b28      	cmp	r3, #40	; 0x28
    43c2:	0000      	movs	r0, r0
    43c4:	1616      	asrs	r6, r2, #24
    43c6:	0000      	movs	r0, r0
    43c8:	e92d 41f0 	stmdb	sp!, {r4, r5, r6, r7, r8, lr}
    43cc:	b082      	sub	sp, #8
    43ce:	6856      	ldr	r6, [r2, #4]
    43d0:	2300      	movs	r3, #0
    43d2:	ebb3 0fd6 	cmp.w	r3, r6, lsr #3
    43d6:	d03a      	beq.n	444e <EnsureFrontOfChain+0x17fa>
    43d8:	f8d2 e000 	ldr.w	lr, [r2]
    43dc:	ea4f 0cd6 	mov.w	ip, r6, lsr #3
    43e0:	2600      	movs	r6, #0
    43e2:	4662      	mov	r2, ip
    43e4:	eb06 0452 	add.w	r4, r6, r2, lsr #1
    43e8:	f85e 5034 	ldr.w	r5, [lr, r4, lsl #3]
    43ec:	f005 4380 	and.w	r3, r5, #1073741824	; 0x40000000
    43f0:	ea45 0343 	orr.w	r3, r5, r3, lsl #1
    43f4:	eb0e 05c4 	add.w	r5, lr, r4, lsl #3
    43f8:	3401      	adds	r4, #1
    43fa:	442b      	add	r3, r5
    43fc:	428b      	cmp	r3, r1
    43fe:	f1a2 0301 	sub.w	r3, r2, #1
    4402:	eba3 0352 	sub.w	r3, r3, r2, lsr #1
    4406:	bf98      	it	ls
    4408:	4626      	movls	r6, r4
    440a:	bf88      	it	hi
    440c:	0853      	lsrhi	r3, r2, #1
    440e:	2b00      	cmp	r3, #0
    4410:	461a      	mov	r2, r3
    4412:	d1e7      	bne.n	43e4 <EnsureFrontOfChain+0x1790>
    4414:	b1d6      	cbz	r6, 444c <EnsureFrontOfChain+0x17f8>
    4416:	1e72      	subs	r2, r6, #1
    4418:	f85e 1032 	ldr.w	r1, [lr, r2, lsl #3]
    441c:	eb0e 02c2 	add.w	r2, lr, r2, lsl #3
    4420:	4566      	cmp	r6, ip
    4422:	d104      	bne.n	442e <EnsureFrontOfChain+0x17da>
    4424:	f04f 38ff 	mov.w	r8, #4294967295	; 0xffffffff
    4428:	1d14      	adds	r4, r2, #4
    442a:	d10c      	bne.n	4446 <EnsureFrontOfChain+0x17f2>
    442c:	e00e      	b.n	444c <EnsureFrontOfChain+0x17f8>
    442e:	f85e 3036 	ldr.w	r3, [lr, r6, lsl #3]
    4432:	eb0e 06c6 	add.w	r6, lr, r6, lsl #3
    4436:	f003 4580 	and.w	r5, r3, #1073741824	; 0x40000000
    443a:	ea43 0345 	orr.w	r3, r3, r5, lsl #1
    443e:	eb03 0806 	add.w	r8, r3, r6
    4442:	1d14      	adds	r4, r2, #4
    4444:	d002      	beq.n	444c <EnsureFrontOfChain+0x17f8>
    4446:	6826      	ldr	r6, [r4, #0]
    4448:	2e01      	cmp	r6, #1
    444a:	d104      	bne.n	4456 <EnsureFrontOfChain+0x1802>
    444c:	2300      	movs	r3, #0
    444e:	4618      	mov	r0, r3
    4450:	b002      	add	sp, #8
    4452:	e8bd 81f0 	ldmia.w	sp!, {r4, r5, r6, r7, r8, pc}
    4456:	2e00      	cmp	r6, #0
    4458:	db19      	blt.n	448e <EnsureFrontOfChain+0x183a>
    445a:	f006 4580 	and.w	r5, r6, #1073741824	; 0x40000000
    445e:	ea46 0645 	orr.w	r6, r6, r5, lsl #1
    4462:	1933      	adds	r3, r6, r4
    4464:	5936      	ldr	r6, [r6, r4]
    4466:	f1b6 3fff 	cmp.w	r6, #4294967295	; 0xffffffff
    446a:	dd13      	ble.n	4494 <EnsureFrontOfChain+0x1840>
    446c:	f006 4780 	and.w	r7, r6, #1073741824	; 0x40000000
    4470:	461d      	mov	r5, r3
    4472:	f04f 0c00 	mov.w	ip, #0
    4476:	461c      	mov	r4, r3
    4478:	ea46 0747 	orr.w	r7, r6, r7, lsl #1
    447c:	eb07 0e03 	add.w	lr, r7, r3
    4480:	f855 7f04 	ldr.w	r7, [r5, #4]!
    4484:	0e3f      	lsrs	r7, r7, #24
    4486:	eb05 0787 	add.w	r7, r5, r7, lsl #2
    448a:	1d3e      	adds	r6, r7, #4
    448c:	e015      	b.n	44ba <EnsureFrontOfChain+0x1866>
    448e:	f04f 0c01 	mov.w	ip, #1
    4492:	e002      	b.n	449a <EnsureFrontOfChain+0x1846>
    4494:	f04f 0c00 	mov.w	ip, #0
    4498:	461c      	mov	r4, r3
    449a:	f3c6 6503 	ubfx	r5, r6, #24, #4
    449e:	2d02      	cmp	r5, #2
    44a0:	d013      	beq.n	44ca <EnsureFrontOfChain+0x1876>
    44a2:	2d01      	cmp	r5, #1
    44a4:	d00b      	beq.n	44be <EnsureFrontOfChain+0x186a>
    44a6:	bbc5      	cbnz	r5, 451a <EnsureFrontOfChain+0x18c6>
    44a8:	4d37      	ldr	r5, [pc, #220]	; (4588 <EnsureFrontOfChain+0x1934>)
    44aa:	1d26      	adds	r6, r4, #4
    44ac:	f1bc 0f00 	cmp.w	ip, #0
    44b0:	bf18      	it	ne
    44b2:	2600      	movne	r6, #0
    44b4:	447d      	add	r5, pc
    44b6:	f8d5 e000 	ldr.w	lr, [r5]
    44ba:	2500      	movs	r5, #0
    44bc:	e017      	b.n	44ee <EnsureFrontOfChain+0x189a>
    44be:	4d2b      	ldr	r5, [pc, #172]	; (456c <EnsureFrontOfChain+0x1918>)
    44c0:	447d      	add	r5, pc
    44c2:	f8d5 e000 	ldr.w	lr, [r5]
    44c6:	2500      	movs	r5, #0
    44c8:	e004      	b.n	44d4 <EnsureFrontOfChain+0x1880>
    44ca:	4d29      	ldr	r5, [pc, #164]	; (4570 <EnsureFrontOfChain+0x191c>)
    44cc:	447d      	add	r5, pc
    44ce:	f8d5 e000 	ldr.w	lr, [r5]
    44d2:	2501      	movs	r5, #1
    44d4:	f3c6 4607 	ubfx	r6, r6, #16, #8
    44d8:	2e00      	cmp	r6, #0
    44da:	4637      	mov	r7, r6
    44dc:	bf18      	it	ne
    44de:	2701      	movne	r7, #1
    44e0:	ea07 070c 	and.w	r7, r7, ip
    44e4:	2f01      	cmp	r7, #1
    44e6:	d027      	beq.n	4538 <EnsureFrontOfChain+0x18e4>
    44e8:	eb04 0686 	add.w	r6, r4, r6, lsl #2
    44ec:	3604      	adds	r6, #4
    44ee:	f001 4380 	and.w	r3, r1, #1073741824	; 0x40000000
    44f2:	2d00      	cmp	r5, #0
    44f4:	f8c0 4178 	str.w	r4, [r0, #376]	; 0x178
    44f8:	ea41 0143 	orr.w	r1, r1, r3, lsl #1
    44fc:	4411      	add	r1, r2
    44fe:	e9c0 1856 	strd	r1, r8, [r0, #344]	; 0x158
    4502:	e9c0 6e58 	strd	r6, lr, [r0, #352]	; 0x160
    4506:	bf18      	it	ne
    4508:	2502      	movne	r5, #2
    450a:	f1bc 0f00 	cmp.w	ip, #0
    450e:	bf18      	it	ne
    4510:	2501      	movne	r5, #1
    4512:	2301      	movs	r3, #1
    4514:	f8c0 516c 	str.w	r5, [r0, #364]	; 0x16c
    4518:	e799      	b.n	444e <EnsureFrontOfChain+0x17fa>
    451a:	f240 305a 	movw	r0, #858	; 0x35a
    451e:	491d      	ldr	r1, [pc, #116]	; (4594 <EnsureFrontOfChain+0x1940>)
    4520:	4a1d      	ldr	r2, [pc, #116]	; (4598 <EnsureFrontOfChain+0x1944>)
    4522:	4b1e      	ldr	r3, [pc, #120]	; (459c <EnsureFrontOfChain+0x1948>)
    4524:	9000      	str	r0, [sp, #0]
    4526:	4819      	ldr	r0, [pc, #100]	; (458c <EnsureFrontOfChain+0x1938>)
    4528:	4479      	add	r1, pc
    452a:	447a      	add	r2, pc
    452c:	447b      	add	r3, pc
    452e:	4478      	add	r0, pc
    4530:	9001      	str	r0, [sp, #4]
    4532:	4817      	ldr	r0, [pc, #92]	; (4590 <EnsureFrontOfChain+0x193c>)
    4534:	4478      	add	r0, pc
    4536:	e00d      	b.n	4554 <EnsureFrontOfChain+0x1900>
    4538:	f240 3061 	movw	r0, #865	; 0x361
    453c:	490f      	ldr	r1, [pc, #60]	; (457c <EnsureFrontOfChain+0x1928>)
    453e:	4a10      	ldr	r2, [pc, #64]	; (4580 <EnsureFrontOfChain+0x192c>)
    4540:	4b10      	ldr	r3, [pc, #64]	; (4584 <EnsureFrontOfChain+0x1930>)
    4542:	9000      	str	r0, [sp, #0]
    4544:	480b      	ldr	r0, [pc, #44]	; (4574 <EnsureFrontOfChain+0x1920>)
    4546:	4479      	add	r1, pc
    4548:	447a      	add	r2, pc
    454a:	447b      	add	r3, pc
    454c:	4478      	add	r0, pc
    454e:	9001      	str	r0, [sp, #4]
    4550:	4809      	ldr	r0, [pc, #36]	; (4578 <EnsureFrontOfChain+0x1924>)
    4552:	4478      	add	r0, pc
    4554:	6800      	ldr	r0, [r0, #0]
    4556:	f100 04a8 	add.w	r4, r0, #168	; 0xa8
    455a:	4620      	mov	r0, r4
    455c:	f000 fd50 	bl	5000 <EnsureFrontOfChain+0x23ac>
    4560:	4620      	mov	r0, r4
    4562:	f000 fd55 	bl	5010 <EnsureFrontOfChain+0x23bc>
    4566:	f000 fd03 	bl	4f70 <EnsureFrontOfChain+0x231c>
    456a:	bf00      	nop
    456c:	2a04      	cmp	r2, #4
    456e:	0000      	movs	r0, r0
    4570:	29fc      	cmp	r1, #252	; 0xfc
    4572:	0000      	movs	r0, r0
    4574:	14a1      	asrs	r1, r4, #18
    4576:	0000      	movs	r0, r0
    4578:	296e      	cmp	r1, #110	; 0x6e
    457a:	0000      	movs	r0, r0
    457c:	1272      	asrs	r2, r6, #9
    457e:	0000      	movs	r0, r0
    4580:	1471      	asrs	r1, r6, #17
    4582:	0000      	movs	r0, r0
    4584:	13a7      	asrs	r7, r4, #14
    4586:	0000      	movs	r0, r0
    4588:	2a18      	cmp	r2, #24
    458a:	0000      	movs	r0, r0
    458c:	14a3      	asrs	r3, r4, #18
    458e:	0000      	movs	r0, r0
    4590:	298c      	cmp	r1, #140	; 0x8c
    4592:	0000      	movs	r0, r0
    4594:	1290      	asrs	r0, r2, #10
    4596:	0000      	movs	r0, r0
    4598:	148f      	asrs	r7, r1, #18
    459a:	0000      	movs	r0, r0
    459c:	13c5      	asrs	r5, r0, #15
    459e:	0000      	movs	r0, r0
    45a0:	6801      	ldr	r1, [r0, #0]
    45a2:	6893      	ldr	r3, [r2, #8]
    45a4:	428b      	cmp	r3, r1
    45a6:	d201      	bcs.n	45ac <EnsureFrontOfChain+0x1958>
    45a8:	2000      	movs	r0, #0
    45aa:	4770      	bx	lr
    45ac:	e92d 41f0 	stmdb	sp!, {r4, r5, r6, r7, r8, lr}
    45b0:	8983      	ldrh	r3, [r0, #12]
    45b2:	b37b      	cbz	r3, 4614 <EnsureFrontOfChain+0x19c0>
    45b4:	f240 0e01 	movw	lr, #1
    45b8:	2100      	movs	r1, #0
    45ba:	f04f 0c00 	mov.w	ip, #0
    45be:	f04f 0800 	mov.w	r8, #0
    45c2:	2400      	movs	r4, #0
    45c4:	f2c7 0e00 	movt	lr, #28672	; 0x7000
    45c8:	6886      	ldr	r6, [r0, #8]
    45ca:	5875      	ldr	r5, [r6, r1]
    45cc:	4575      	cmp	r5, lr
    45ce:	d00f      	beq.n	45f0 <EnsureFrontOfChain+0x199c>
    45d0:	2d01      	cmp	r5, #1
    45d2:	d119      	bne.n	4608 <EnsureFrontOfChain+0x19b4>
    45d4:	440e      	add	r6, r1
    45d6:	6807      	ldr	r7, [r0, #0]
    45d8:	68b5      	ldr	r5, [r6, #8]
    45da:	443d      	add	r5, r7
    45dc:	6897      	ldr	r7, [r2, #8]
    45de:	42af      	cmp	r7, r5
    45e0:	d312      	bcc.n	4608 <EnsureFrontOfChain+0x19b4>
    45e2:	6976      	ldr	r6, [r6, #20]
    45e4:	4435      	add	r5, r6
    45e6:	42af      	cmp	r7, r5
    45e8:	d20e      	bcs.n	4608 <EnsureFrontOfChain+0x19b4>
    45ea:	f04f 0c01 	mov.w	ip, #1
    45ee:	e00b      	b.n	4608 <EnsureFrontOfChain+0x19b4>
    45f0:	1873      	adds	r3, r6, r1
    45f2:	6806      	ldr	r6, [r0, #0]
    45f4:	f04f 0801 	mov.w	r8, #1
    45f8:	689d      	ldr	r5, [r3, #8]
    45fa:	4435      	add	r5, r6
    45fc:	6856      	ldr	r6, [r2, #4]
    45fe:	6035      	str	r5, [r6, #0]
    4600:	695b      	ldr	r3, [r3, #20]
    4602:	6855      	ldr	r5, [r2, #4]
    4604:	606b      	str	r3, [r5, #4]
    4606:	8983      	ldrh	r3, [r0, #12]
    4608:	3120      	adds	r1, #32
    460a:	3401      	adds	r4, #1
    460c:	b29d      	uxth	r5, r3
    460e:	42ac      	cmp	r4, r5
    4610:	d3da      	bcc.n	45c8 <EnsureFrontOfChain+0x1974>
    4612:	e003      	b.n	461c <EnsureFrontOfChain+0x19c8>
    4614:	f04f 0800 	mov.w	r8, #0
    4618:	f04f 0c00 	mov.w	ip, #0
    461c:	ea08 000c 	and.w	r0, r8, ip
    4620:	f000 0001 	and.w	r0, r0, #1
    4624:	e8bd 81f0 	ldmia.w	sp!, {r4, r5, r6, r7, r8, pc}
    4628:	3102      	adds	r1, #2
    462a:	0848      	lsrs	r0, r1, #1
    462c:	2890      	cmp	r0, #144	; 0x90
    462e:	f200 8154 	bhi.w	48da <EnsureFrontOfChain+0x1c86>
    4632:	f8df 042c 	ldr.w	r0, [pc, #1068]	; 4a60 <EnsureFrontOfChain+0x1e0c>
    4636:	4478      	add	r0, pc
    4638:	e8df f011 	tbh	[pc, r1, lsl #1]
    463c:	0122      	lsls	r2, r4, #4
    463e:	0151      	lsls	r1, r2, #5
    4640:	0125      	lsls	r5, r4, #4
    4642:	0128      	lsls	r0, r5, #4
    4644:	012b      	lsls	r3, r5, #4
    4646:	012e      	lsls	r6, r5, #4
    4648:	0131      	lsls	r1, r6, #4
    464a:	0134      	lsls	r4, r6, #4
    464c:	0137      	lsls	r7, r6, #4
    464e:	013a      	lsls	r2, r7, #4
    4650:	013d      	lsls	r5, r7, #4
    4652:	0140      	lsls	r0, r0, #5
    4654:	0143      	lsls	r3, r0, #5
    4656:	0146      	lsls	r6, r0, #5
    4658:	0149      	lsls	r1, r1, #5
    465a:	0122      	lsls	r2, r4, #4
    465c:	014c      	lsls	r4, r1, #5
    465e:	0151      	lsls	r1, r2, #5
    4660:	014f      	lsls	r7, r1, #5
    4662:	014f      	lsls	r7, r1, #5
    4664:	014f      	lsls	r7, r1, #5
    4666:	014f      	lsls	r7, r1, #5
    4668:	014f      	lsls	r7, r1, #5
    466a:	014f      	lsls	r7, r1, #5
    466c:	014f      	lsls	r7, r1, #5
    466e:	014f      	lsls	r7, r1, #5
    4670:	014f      	lsls	r7, r1, #5
    4672:	014f      	lsls	r7, r1, #5
    4674:	014f      	lsls	r7, r1, #5
    4676:	014f      	lsls	r7, r1, #5
    4678:	014f      	lsls	r7, r1, #5
    467a:	014f      	lsls	r7, r1, #5
    467c:	014f      	lsls	r7, r1, #5
    467e:	014f      	lsls	r7, r1, #5
    4680:	014f      	lsls	r7, r1, #5
    4682:	014f      	lsls	r7, r1, #5
    4684:	014f      	lsls	r7, r1, #5
    4686:	014f      	lsls	r7, r1, #5
    4688:	014f      	lsls	r7, r1, #5
    468a:	014f      	lsls	r7, r1, #5
    468c:	014f      	lsls	r7, r1, #5
    468e:	014f      	lsls	r7, r1, #5
    4690:	014f      	lsls	r7, r1, #5
    4692:	014f      	lsls	r7, r1, #5
    4694:	014f      	lsls	r7, r1, #5
    4696:	014f      	lsls	r7, r1, #5
    4698:	014f      	lsls	r7, r1, #5
    469a:	014f      	lsls	r7, r1, #5
    469c:	014f      	lsls	r7, r1, #5
    469e:	014f      	lsls	r7, r1, #5
    46a0:	014f      	lsls	r7, r1, #5
    46a2:	014f      	lsls	r7, r1, #5
    46a4:	014f      	lsls	r7, r1, #5
    46a6:	014f      	lsls	r7, r1, #5
    46a8:	014f      	lsls	r7, r1, #5
    46aa:	014f      	lsls	r7, r1, #5
    46ac:	014f      	lsls	r7, r1, #5
    46ae:	014f      	lsls	r7, r1, #5
    46b0:	014f      	lsls	r7, r1, #5
    46b2:	014f      	lsls	r7, r1, #5
    46b4:	014f      	lsls	r7, r1, #5
    46b6:	014f      	lsls	r7, r1, #5
    46b8:	014f      	lsls	r7, r1, #5
    46ba:	014f      	lsls	r7, r1, #5
    46bc:	014f      	lsls	r7, r1, #5
    46be:	014f      	lsls	r7, r1, #5
    46c0:	0152      	lsls	r2, r2, #5
    46c2:	0155      	lsls	r5, r2, #5
    46c4:	0158      	lsls	r0, r3, #5
    46c6:	015b      	lsls	r3, r3, #5
    46c8:	015e      	lsls	r6, r3, #5
    46ca:	0161      	lsls	r1, r4, #5
    46cc:	0164      	lsls	r4, r4, #5
    46ce:	0167      	lsls	r7, r4, #5
    46d0:	016a      	lsls	r2, r5, #5
    46d2:	016d      	lsls	r5, r5, #5
    46d4:	0170      	lsls	r0, r6, #5
    46d6:	0173      	lsls	r3, r6, #5
    46d8:	0176      	lsls	r6, r6, #5
    46da:	0179      	lsls	r1, r7, #5
    46dc:	017c      	lsls	r4, r7, #5
    46de:	017f      	lsls	r7, r7, #5
    46e0:	0182      	lsls	r2, r0, #6
    46e2:	0185      	lsls	r5, r0, #6
    46e4:	0188      	lsls	r0, r1, #6
    46e6:	018b      	lsls	r3, r1, #6
    46e8:	018e      	lsls	r6, r1, #6
    46ea:	0191      	lsls	r1, r2, #6
    46ec:	0194      	lsls	r4, r2, #6
    46ee:	0197      	lsls	r7, r2, #6
    46f0:	019a      	lsls	r2, r3, #6
    46f2:	019d      	lsls	r5, r3, #6
    46f4:	01a0      	lsls	r0, r4, #6
    46f6:	01a3      	lsls	r3, r4, #6
    46f8:	01a6      	lsls	r6, r4, #6
    46fa:	01a9      	lsls	r1, r5, #6
    46fc:	01ac      	lsls	r4, r5, #6
    46fe:	01af      	lsls	r7, r5, #6
    4700:	014f      	lsls	r7, r1, #5
    4702:	014f      	lsls	r7, r1, #5
    4704:	014f      	lsls	r7, r1, #5
    4706:	014f      	lsls	r7, r1, #5
    4708:	014f      	lsls	r7, r1, #5
    470a:	014f      	lsls	r7, r1, #5
    470c:	014f      	lsls	r7, r1, #5
    470e:	014f      	lsls	r7, r1, #5
    4710:	014f      	lsls	r7, r1, #5
    4712:	014f      	lsls	r7, r1, #5
    4714:	014f      	lsls	r7, r1, #5
    4716:	014f      	lsls	r7, r1, #5
    4718:	014f      	lsls	r7, r1, #5
    471a:	014f      	lsls	r7, r1, #5
    471c:	014f      	lsls	r7, r1, #5
    471e:	014f      	lsls	r7, r1, #5
    4720:	014f      	lsls	r7, r1, #5
    4722:	014f      	lsls	r7, r1, #5
    4724:	014f      	lsls	r7, r1, #5
    4726:	014f      	lsls	r7, r1, #5
    4728:	014f      	lsls	r7, r1, #5
    472a:	014f      	lsls	r7, r1, #5
    472c:	014f      	lsls	r7, r1, #5
    472e:	014f      	lsls	r7, r1, #5
    4730:	014f      	lsls	r7, r1, #5
    4732:	014f      	lsls	r7, r1, #5
    4734:	014f      	lsls	r7, r1, #5
    4736:	014f      	lsls	r7, r1, #5
    4738:	014f      	lsls	r7, r1, #5
    473a:	014f      	lsls	r7, r1, #5
    473c:	014f      	lsls	r7, r1, #5
    473e:	014f      	lsls	r7, r1, #5
    4740:	014f      	lsls	r7, r1, #5
    4742:	014f      	lsls	r7, r1, #5
    4744:	014f      	lsls	r7, r1, #5
    4746:	014f      	lsls	r7, r1, #5
    4748:	014f      	lsls	r7, r1, #5
    474a:	014f      	lsls	r7, r1, #5
    474c:	014f      	lsls	r7, r1, #5
    474e:	014f      	lsls	r7, r1, #5
    4750:	014f      	lsls	r7, r1, #5
    4752:	014f      	lsls	r7, r1, #5
    4754:	014f      	lsls	r7, r1, #5
    4756:	014f      	lsls	r7, r1, #5
    4758:	014f      	lsls	r7, r1, #5
    475a:	014f      	lsls	r7, r1, #5
    475c:	014f      	lsls	r7, r1, #5
    475e:	014f      	lsls	r7, r1, #5
    4760:	014f      	lsls	r7, r1, #5
    4762:	014f      	lsls	r7, r1, #5
    4764:	014f      	lsls	r7, r1, #5
    4766:	014f      	lsls	r7, r1, #5
    4768:	014f      	lsls	r7, r1, #5
    476a:	014f      	lsls	r7, r1, #5
    476c:	014f      	lsls	r7, r1, #5
    476e:	014f      	lsls	r7, r1, #5
    4770:	014f      	lsls	r7, r1, #5
    4772:	014f      	lsls	r7, r1, #5
    4774:	014f      	lsls	r7, r1, #5
    4776:	014f      	lsls	r7, r1, #5
    4778:	014f      	lsls	r7, r1, #5
    477a:	014f      	lsls	r7, r1, #5
    477c:	014f      	lsls	r7, r1, #5
    477e:	014f      	lsls	r7, r1, #5
    4780:	014f      	lsls	r7, r1, #5
    4782:	014f      	lsls	r7, r1, #5
    4784:	014f      	lsls	r7, r1, #5
    4786:	014f      	lsls	r7, r1, #5
    4788:	014f      	lsls	r7, r1, #5
    478a:	014f      	lsls	r7, r1, #5
    478c:	014f      	lsls	r7, r1, #5
    478e:	014f      	lsls	r7, r1, #5
    4790:	014f      	lsls	r7, r1, #5
    4792:	014f      	lsls	r7, r1, #5
    4794:	014f      	lsls	r7, r1, #5
    4796:	014f      	lsls	r7, r1, #5
    4798:	014f      	lsls	r7, r1, #5
    479a:	014f      	lsls	r7, r1, #5
    479c:	014f      	lsls	r7, r1, #5
    479e:	014f      	lsls	r7, r1, #5
    47a0:	014f      	lsls	r7, r1, #5
    47a2:	014f      	lsls	r7, r1, #5
    47a4:	014f      	lsls	r7, r1, #5
    47a6:	014f      	lsls	r7, r1, #5
    47a8:	014f      	lsls	r7, r1, #5
    47aa:	014f      	lsls	r7, r1, #5
    47ac:	014f      	lsls	r7, r1, #5
    47ae:	014f      	lsls	r7, r1, #5
    47b0:	014f      	lsls	r7, r1, #5
    47b2:	014f      	lsls	r7, r1, #5
    47b4:	014f      	lsls	r7, r1, #5
    47b6:	014f      	lsls	r7, r1, #5
    47b8:	014f      	lsls	r7, r1, #5
    47ba:	014f      	lsls	r7, r1, #5
    47bc:	014f      	lsls	r7, r1, #5
    47be:	014f      	lsls	r7, r1, #5
    47c0:	014f      	lsls	r7, r1, #5
    47c2:	014f      	lsls	r7, r1, #5
    47c4:	014f      	lsls	r7, r1, #5
    47c6:	014f      	lsls	r7, r1, #5
    47c8:	014f      	lsls	r7, r1, #5
    47ca:	014f      	lsls	r7, r1, #5
    47cc:	014f      	lsls	r7, r1, #5
    47ce:	014f      	lsls	r7, r1, #5
    47d0:	014f      	lsls	r7, r1, #5
    47d2:	014f      	lsls	r7, r1, #5
    47d4:	014f      	lsls	r7, r1, #5
    47d6:	014f      	lsls	r7, r1, #5
    47d8:	014f      	lsls	r7, r1, #5
    47da:	014f      	lsls	r7, r1, #5
    47dc:	014f      	lsls	r7, r1, #5
    47de:	014f      	lsls	r7, r1, #5
    47e0:	014f      	lsls	r7, r1, #5
    47e2:	014f      	lsls	r7, r1, #5
    47e4:	014f      	lsls	r7, r1, #5
    47e6:	014f      	lsls	r7, r1, #5
    47e8:	014f      	lsls	r7, r1, #5
    47ea:	014f      	lsls	r7, r1, #5
    47ec:	014f      	lsls	r7, r1, #5
    47ee:	014f      	lsls	r7, r1, #5
    47f0:	014f      	lsls	r7, r1, #5
    47f2:	014f      	lsls	r7, r1, #5
    47f4:	014f      	lsls	r7, r1, #5
    47f6:	014f      	lsls	r7, r1, #5
    47f8:	014f      	lsls	r7, r1, #5
    47fa:	014f      	lsls	r7, r1, #5
    47fc:	014f      	lsls	r7, r1, #5
    47fe:	014f      	lsls	r7, r1, #5
    4800:	014f      	lsls	r7, r1, #5
    4802:	014f      	lsls	r7, r1, #5
    4804:	014f      	lsls	r7, r1, #5
    4806:	014f      	lsls	r7, r1, #5
    4808:	014f      	lsls	r7, r1, #5
    480a:	014f      	lsls	r7, r1, #5
    480c:	014f      	lsls	r7, r1, #5
    480e:	014f      	lsls	r7, r1, #5
    4810:	014f      	lsls	r7, r1, #5
    4812:	014f      	lsls	r7, r1, #5
    4814:	014f      	lsls	r7, r1, #5
    4816:	014f      	lsls	r7, r1, #5
    4818:	014f      	lsls	r7, r1, #5
    481a:	014f      	lsls	r7, r1, #5
    481c:	014f      	lsls	r7, r1, #5
    481e:	014f      	lsls	r7, r1, #5
    4820:	014f      	lsls	r7, r1, #5
    4822:	014f      	lsls	r7, r1, #5
    4824:	014f      	lsls	r7, r1, #5
    4826:	014f      	lsls	r7, r1, #5
    4828:	014f      	lsls	r7, r1, #5
    482a:	014f      	lsls	r7, r1, #5
    482c:	014f      	lsls	r7, r1, #5
    482e:	014f      	lsls	r7, r1, #5
    4830:	014f      	lsls	r7, r1, #5
    4832:	014f      	lsls	r7, r1, #5
    4834:	014f      	lsls	r7, r1, #5
    4836:	014f      	lsls	r7, r1, #5
    4838:	014f      	lsls	r7, r1, #5
    483a:	014f      	lsls	r7, r1, #5
    483c:	014f      	lsls	r7, r1, #5
    483e:	014f      	lsls	r7, r1, #5
    4840:	01b2      	lsls	r2, r6, #6
    4842:	01b5      	lsls	r5, r6, #6
    4844:	01b8      	lsls	r0, r7, #6
    4846:	01bb      	lsls	r3, r7, #6
    4848:	01be      	lsls	r6, r7, #6
    484a:	01c1      	lsls	r1, r0, #7
    484c:	01c4      	lsls	r4, r0, #7
    484e:	01c7      	lsls	r7, r0, #7
    4850:	01ca      	lsls	r2, r1, #7
    4852:	01cd      	lsls	r5, r1, #7
    4854:	01d0      	lsls	r0, r2, #7
    4856:	01d3      	lsls	r3, r2, #7
    4858:	01d6      	lsls	r6, r2, #7
    485a:	01d9      	lsls	r1, r3, #7
    485c:	01dc      	lsls	r4, r3, #7
    485e:	01df      	lsls	r7, r3, #7
    4860:	01e2      	lsls	r2, r4, #7
    4862:	01e5      	lsls	r5, r4, #7
    4864:	01e8      	lsls	r0, r5, #7
    4866:	01eb      	lsls	r3, r5, #7
    4868:	01ee      	lsls	r6, r5, #7
    486a:	01f1      	lsls	r1, r6, #7
    486c:	01f4      	lsls	r4, r6, #7
    486e:	01f7      	lsls	r7, r6, #7
    4870:	01fa      	lsls	r2, r7, #7
    4872:	01fd      	lsls	r5, r7, #7
    4874:	0200      	lsls	r0, r0, #8
    4876:	0203      	lsls	r3, r0, #8
    4878:	0206      	lsls	r6, r0, #8
    487a:	0209      	lsls	r1, r1, #8
    487c:	020c      	lsls	r4, r1, #8
    487e:	020f      	lsls	r7, r1, #8
    4880:	48c5      	ldr	r0, [pc, #788]	; (4b98 <EnsureFrontOfChain+0x1f44>)
    4882:	4478      	add	r0, pc
    4884:	4770      	bx	lr
    4886:	48c3      	ldr	r0, [pc, #780]	; (4b94 <EnsureFrontOfChain+0x1f40>)
    4888:	4478      	add	r0, pc
    488a:	4770      	bx	lr
    488c:	48c0      	ldr	r0, [pc, #768]	; (4b90 <EnsureFrontOfChain+0x1f3c>)
    488e:	4478      	add	r0, pc
    4890:	4770      	bx	lr
    4892:	48be      	ldr	r0, [pc, #760]	; (4b8c <EnsureFrontOfChain+0x1f38>)
    4894:	4478      	add	r0, pc
    4896:	4770      	bx	lr
    4898:	48bb      	ldr	r0, [pc, #748]	; (4b88 <EnsureFrontOfChain+0x1f34>)
    489a:	4478      	add	r0, pc
    489c:	4770      	bx	lr
    489e:	48b9      	ldr	r0, [pc, #740]	; (4b84 <EnsureFrontOfChain+0x1f30>)
    48a0:	4478      	add	r0, pc
    48a2:	4770      	bx	lr
    48a4:	48b6      	ldr	r0, [pc, #728]	; (4b80 <EnsureFrontOfChain+0x1f2c>)
    48a6:	4478      	add	r0, pc
    48a8:	4770      	bx	lr
    48aa:	48b4      	ldr	r0, [pc, #720]	; (4b7c <EnsureFrontOfChain+0x1f28>)
    48ac:	4478      	add	r0, pc
    48ae:	4770      	bx	lr
    48b0:	48b1      	ldr	r0, [pc, #708]	; (4b78 <EnsureFrontOfChain+0x1f24>)
    48b2:	4478      	add	r0, pc
    48b4:	4770      	bx	lr
    48b6:	48af      	ldr	r0, [pc, #700]	; (4b74 <EnsureFrontOfChain+0x1f20>)
    48b8:	4478      	add	r0, pc
    48ba:	4770      	bx	lr
    48bc:	48ac      	ldr	r0, [pc, #688]	; (4b70 <EnsureFrontOfChain+0x1f1c>)
    48be:	4478      	add	r0, pc
    48c0:	4770      	bx	lr
    48c2:	48aa      	ldr	r0, [pc, #680]	; (4b6c <EnsureFrontOfChain+0x1f18>)
    48c4:	4478      	add	r0, pc
    48c6:	4770      	bx	lr
    48c8:	48a7      	ldr	r0, [pc, #668]	; (4b68 <EnsureFrontOfChain+0x1f14>)
    48ca:	4478      	add	r0, pc
    48cc:	4770      	bx	lr
    48ce:	48a5      	ldr	r0, [pc, #660]	; (4b64 <EnsureFrontOfChain+0x1f10>)
    48d0:	4478      	add	r0, pc
    48d2:	4770      	bx	lr
    48d4:	48b1      	ldr	r0, [pc, #708]	; (4b9c <EnsureFrontOfChain+0x1f48>)
    48d6:	4478      	add	r0, pc
    48d8:	4770      	bx	lr
    48da:	48b1      	ldr	r0, [pc, #708]	; (4ba0 <EnsureFrontOfChain+0x1f4c>)
    48dc:	4478      	add	r0, pc
    48de:	4770      	bx	lr
    48e0:	489f      	ldr	r0, [pc, #636]	; (4b60 <EnsureFrontOfChain+0x1f0c>)
    48e2:	4478      	add	r0, pc
    48e4:	4770      	bx	lr
    48e6:	489d      	ldr	r0, [pc, #628]	; (4b5c <EnsureFrontOfChain+0x1f08>)
    48e8:	4478      	add	r0, pc
    48ea:	4770      	bx	lr
    48ec:	489a      	ldr	r0, [pc, #616]	; (4b58 <EnsureFrontOfChain+0x1f04>)
    48ee:	4478      	add	r0, pc
    48f0:	4770      	bx	lr
    48f2:	4898      	ldr	r0, [pc, #608]	; (4b54 <EnsureFrontOfChain+0x1f00>)
    48f4:	4478      	add	r0, pc
    48f6:	4770      	bx	lr
    48f8:	4895      	ldr	r0, [pc, #596]	; (4b50 <EnsureFrontOfChain+0x1efc>)
    48fa:	4478      	add	r0, pc
    48fc:	4770      	bx	lr
    48fe:	4893      	ldr	r0, [pc, #588]	; (4b4c <EnsureFrontOfChain+0x1ef8>)
    4900:	4478      	add	r0, pc
    4902:	4770      	bx	lr
    4904:	4890      	ldr	r0, [pc, #576]	; (4b48 <EnsureFrontOfChain+0x1ef4>)
    4906:	4478      	add	r0, pc
    4908:	4770      	bx	lr
    490a:	488e      	ldr	r0, [pc, #568]	; (4b44 <EnsureFrontOfChain+0x1ef0>)
    490c:	4478      	add	r0, pc
    490e:	4770      	bx	lr
    4910:	488b      	ldr	r0, [pc, #556]	; (4b40 <EnsureFrontOfChain+0x1eec>)
    4912:	4478      	add	r0, pc
    4914:	4770      	bx	lr
    4916:	4889      	ldr	r0, [pc, #548]	; (4b3c <EnsureFrontOfChain+0x1ee8>)
    4918:	4478      	add	r0, pc
    491a:	4770      	bx	lr
    491c:	4886      	ldr	r0, [pc, #536]	; (4b38 <EnsureFrontOfChain+0x1ee4>)
    491e:	4478      	add	r0, pc
    4920:	4770      	bx	lr
    4922:	4884      	ldr	r0, [pc, #528]	; (4b34 <EnsureFrontOfChain+0x1ee0>)
    4924:	4478      	add	r0, pc
    4926:	4770      	bx	lr
    4928:	4881      	ldr	r0, [pc, #516]	; (4b30 <EnsureFrontOfChain+0x1edc>)
    492a:	4478      	add	r0, pc
    492c:	4770      	bx	lr
    492e:	487f      	ldr	r0, [pc, #508]	; (4b2c <EnsureFrontOfChain+0x1ed8>)
    4930:	4478      	add	r0, pc
    4932:	4770      	bx	lr
    4934:	487c      	ldr	r0, [pc, #496]	; (4b28 <EnsureFrontOfChain+0x1ed4>)
    4936:	4478      	add	r0, pc
    4938:	4770      	bx	lr
    493a:	487a      	ldr	r0, [pc, #488]	; (4b24 <EnsureFrontOfChain+0x1ed0>)
    493c:	4478      	add	r0, pc
    493e:	4770      	bx	lr
    4940:	4877      	ldr	r0, [pc, #476]	; (4b20 <EnsureFrontOfChain+0x1ecc>)
    4942:	4478      	add	r0, pc
    4944:	4770      	bx	lr
    4946:	4875      	ldr	r0, [pc, #468]	; (4b1c <EnsureFrontOfChain+0x1ec8>)
    4948:	4478      	add	r0, pc
    494a:	4770      	bx	lr
    494c:	4872      	ldr	r0, [pc, #456]	; (4b18 <EnsureFrontOfChain+0x1ec4>)
    494e:	4478      	add	r0, pc
    4950:	4770      	bx	lr
    4952:	4870      	ldr	r0, [pc, #448]	; (4b14 <EnsureFrontOfChain+0x1ec0>)
    4954:	4478      	add	r0, pc
    4956:	4770      	bx	lr
    4958:	486d      	ldr	r0, [pc, #436]	; (4b10 <EnsureFrontOfChain+0x1ebc>)
    495a:	4478      	add	r0, pc
    495c:	4770      	bx	lr
    495e:	486b      	ldr	r0, [pc, #428]	; (4b0c <EnsureFrontOfChain+0x1eb8>)
    4960:	4478      	add	r0, pc
    4962:	4770      	bx	lr
    4964:	4868      	ldr	r0, [pc, #416]	; (4b08 <EnsureFrontOfChain+0x1eb4>)
    4966:	4478      	add	r0, pc
    4968:	4770      	bx	lr
    496a:	4866      	ldr	r0, [pc, #408]	; (4b04 <EnsureFrontOfChain+0x1eb0>)
    496c:	4478      	add	r0, pc
    496e:	4770      	bx	lr
    4970:	4863      	ldr	r0, [pc, #396]	; (4b00 <EnsureFrontOfChain+0x1eac>)
    4972:	4478      	add	r0, pc
    4974:	4770      	bx	lr
    4976:	4861      	ldr	r0, [pc, #388]	; (4afc <EnsureFrontOfChain+0x1ea8>)
    4978:	4478      	add	r0, pc
    497a:	4770      	bx	lr
    497c:	485e      	ldr	r0, [pc, #376]	; (4af8 <EnsureFrontOfChain+0x1ea4>)
    497e:	4478      	add	r0, pc
    4980:	4770      	bx	lr
    4982:	485c      	ldr	r0, [pc, #368]	; (4af4 <EnsureFrontOfChain+0x1ea0>)
    4984:	4478      	add	r0, pc
    4986:	4770      	bx	lr
    4988:	4859      	ldr	r0, [pc, #356]	; (4af0 <EnsureFrontOfChain+0x1e9c>)
    498a:	4478      	add	r0, pc
    498c:	4770      	bx	lr
    498e:	4857      	ldr	r0, [pc, #348]	; (4aec <EnsureFrontOfChain+0x1e98>)
    4990:	4478      	add	r0, pc
    4992:	4770      	bx	lr
    4994:	4854      	ldr	r0, [pc, #336]	; (4ae8 <EnsureFrontOfChain+0x1e94>)
    4996:	4478      	add	r0, pc
    4998:	4770      	bx	lr
    499a:	4852      	ldr	r0, [pc, #328]	; (4ae4 <EnsureFrontOfChain+0x1e90>)
    499c:	4478      	add	r0, pc
    499e:	4770      	bx	lr
    49a0:	484f      	ldr	r0, [pc, #316]	; (4ae0 <EnsureFrontOfChain+0x1e8c>)
    49a2:	4478      	add	r0, pc
    49a4:	4770      	bx	lr
    49a6:	484d      	ldr	r0, [pc, #308]	; (4adc <EnsureFrontOfChain+0x1e88>)
    49a8:	4478      	add	r0, pc
    49aa:	4770      	bx	lr
    49ac:	484a      	ldr	r0, [pc, #296]	; (4ad8 <EnsureFrontOfChain+0x1e84>)
    49ae:	4478      	add	r0, pc
    49b0:	4770      	bx	lr
    49b2:	4848      	ldr	r0, [pc, #288]	; (4ad4 <EnsureFrontOfChain+0x1e80>)
    49b4:	4478      	add	r0, pc
    49b6:	4770      	bx	lr
    49b8:	4845      	ldr	r0, [pc, #276]	; (4ad0 <EnsureFrontOfChain+0x1e7c>)
    49ba:	4478      	add	r0, pc
    49bc:	4770      	bx	lr
    49be:	4843      	ldr	r0, [pc, #268]	; (4acc <EnsureFrontOfChain+0x1e78>)
    49c0:	4478      	add	r0, pc
    49c2:	4770      	bx	lr
    49c4:	4840      	ldr	r0, [pc, #256]	; (4ac8 <EnsureFrontOfChain+0x1e74>)
    49c6:	4478      	add	r0, pc
    49c8:	4770      	bx	lr
    49ca:	483e      	ldr	r0, [pc, #248]	; (4ac4 <EnsureFrontOfChain+0x1e70>)
    49cc:	4478      	add	r0, pc
    49ce:	4770      	bx	lr
    49d0:	483b      	ldr	r0, [pc, #236]	; (4ac0 <EnsureFrontOfChain+0x1e6c>)
    49d2:	4478      	add	r0, pc
    49d4:	4770      	bx	lr
    49d6:	4839      	ldr	r0, [pc, #228]	; (4abc <EnsureFrontOfChain+0x1e68>)
    49d8:	4478      	add	r0, pc
    49da:	4770      	bx	lr
    49dc:	4836      	ldr	r0, [pc, #216]	; (4ab8 <EnsureFrontOfChain+0x1e64>)
    49de:	4478      	add	r0, pc
    49e0:	4770      	bx	lr
    49e2:	4834      	ldr	r0, [pc, #208]	; (4ab4 <EnsureFrontOfChain+0x1e60>)
    49e4:	4478      	add	r0, pc
    49e6:	4770      	bx	lr
    49e8:	4831      	ldr	r0, [pc, #196]	; (4ab0 <EnsureFrontOfChain+0x1e5c>)
    49ea:	4478      	add	r0, pc
    49ec:	4770      	bx	lr
    49ee:	482f      	ldr	r0, [pc, #188]	; (4aac <EnsureFrontOfChain+0x1e58>)
    49f0:	4478      	add	r0, pc
    49f2:	4770      	bx	lr
    49f4:	482c      	ldr	r0, [pc, #176]	; (4aa8 <EnsureFrontOfChain+0x1e54>)
    49f6:	4478      	add	r0, pc
    49f8:	4770      	bx	lr
    49fa:	482a      	ldr	r0, [pc, #168]	; (4aa4 <EnsureFrontOfChain+0x1e50>)
    49fc:	4478      	add	r0, pc
    49fe:	4770      	bx	lr
    4a00:	4827      	ldr	r0, [pc, #156]	; (4aa0 <EnsureFrontOfChain+0x1e4c>)
    4a02:	4478      	add	r0, pc
    4a04:	4770      	bx	lr
    4a06:	4825      	ldr	r0, [pc, #148]	; (4a9c <EnsureFrontOfChain+0x1e48>)
    4a08:	4478      	add	r0, pc
    4a0a:	4770      	bx	lr
    4a0c:	4822      	ldr	r0, [pc, #136]	; (4a98 <EnsureFrontOfChain+0x1e44>)
    4a0e:	4478      	add	r0, pc
    4a10:	4770      	bx	lr
    4a12:	4820      	ldr	r0, [pc, #128]	; (4a94 <EnsureFrontOfChain+0x1e40>)
    4a14:	4478      	add	r0, pc
    4a16:	4770      	bx	lr
    4a18:	481d      	ldr	r0, [pc, #116]	; (4a90 <EnsureFrontOfChain+0x1e3c>)
    4a1a:	4478      	add	r0, pc
    4a1c:	4770      	bx	lr
    4a1e:	481b      	ldr	r0, [pc, #108]	; (4a8c <EnsureFrontOfChain+0x1e38>)
    4a20:	4478      	add	r0, pc
    4a22:	4770      	bx	lr
    4a24:	4818      	ldr	r0, [pc, #96]	; (4a88 <EnsureFrontOfChain+0x1e34>)
    4a26:	4478      	add	r0, pc
    4a28:	4770      	bx	lr
    4a2a:	4816      	ldr	r0, [pc, #88]	; (4a84 <EnsureFrontOfChain+0x1e30>)
    4a2c:	4478      	add	r0, pc
    4a2e:	4770      	bx	lr
    4a30:	4813      	ldr	r0, [pc, #76]	; (4a80 <EnsureFrontOfChain+0x1e2c>)
    4a32:	4478      	add	r0, pc
    4a34:	4770      	bx	lr
    4a36:	4811      	ldr	r0, [pc, #68]	; (4a7c <EnsureFrontOfChain+0x1e28>)
    4a38:	4478      	add	r0, pc
    4a3a:	4770      	bx	lr
    4a3c:	480e      	ldr	r0, [pc, #56]	; (4a78 <EnsureFrontOfChain+0x1e24>)
    4a3e:	4478      	add	r0, pc
    4a40:	4770      	bx	lr
    4a42:	480c      	ldr	r0, [pc, #48]	; (4a74 <EnsureFrontOfChain+0x1e20>)
    4a44:	4478      	add	r0, pc
    4a46:	4770      	bx	lr
    4a48:	4809      	ldr	r0, [pc, #36]	; (4a70 <EnsureFrontOfChain+0x1e1c>)
    4a4a:	4478      	add	r0, pc
    4a4c:	4770      	bx	lr
    4a4e:	4807      	ldr	r0, [pc, #28]	; (4a6c <EnsureFrontOfChain+0x1e18>)
    4a50:	4478      	add	r0, pc
    4a52:	4770      	bx	lr
    4a54:	4804      	ldr	r0, [pc, #16]	; (4a68 <EnsureFrontOfChain+0x1e14>)
    4a56:	4478      	add	r0, pc
    4a58:	4770      	bx	lr
    4a5a:	4802      	ldr	r0, [pc, #8]	; (4a64 <EnsureFrontOfChain+0x1e10>)
    4a5c:	4478      	add	r0, pc
    4a5e:	4770      	bx	lr
    4a60:	13f9      	asrs	r1, r7, #15
    4a62:	0000      	movs	r0, r0
    4a64:	10ee      	asrs	r6, r5, #3
    4a66:	0000      	movs	r0, r0
    4a68:	10f0      	asrs	r0, r6, #3
    4a6a:	0000      	movs	r0, r0
    4a6c:	10f2      	asrs	r2, r6, #3
    4a6e:	0000      	movs	r0, r0
    4a70:	10f4      	asrs	r4, r6, #3
    4a72:	0000      	movs	r0, r0
    4a74:	10f6      	asrs	r6, r6, #3
    4a76:	0000      	movs	r0, r0
    4a78:	10f8      	asrs	r0, r7, #3
    4a7a:	0000      	movs	r0, r0
    4a7c:	10fa      	asrs	r2, r7, #3
    4a7e:	0000      	movs	r0, r0
    4a80:	10fc      	asrs	r4, r7, #3
    4a82:	0000      	movs	r0, r0
    4a84:	10fe      	asrs	r6, r7, #3
    4a86:	0000      	movs	r0, r0
    4a88:	1100      	asrs	r0, r0, #4
    4a8a:	0000      	movs	r0, r0
    4a8c:	1102      	asrs	r2, r0, #4
    4a8e:	0000      	movs	r0, r0
    4a90:	1104      	asrs	r4, r0, #4
    4a92:	0000      	movs	r0, r0
    4a94:	1106      	asrs	r6, r0, #4
    4a96:	0000      	movs	r0, r0
    4a98:	1108      	asrs	r0, r1, #4
    4a9a:	0000      	movs	r0, r0
    4a9c:	110a      	asrs	r2, r1, #4
    4a9e:	0000      	movs	r0, r0
    4aa0:	110c      	asrs	r4, r1, #4
    4aa2:	0000      	movs	r0, r0
    4aa4:	110e      	asrs	r6, r1, #4
    4aa6:	0000      	movs	r0, r0
    4aa8:	1110      	asrs	r0, r2, #4
    4aaa:	0000      	movs	r0, r0
    4aac:	1112      	asrs	r2, r2, #4
    4aae:	0000      	movs	r0, r0
    4ab0:	1114      	asrs	r4, r2, #4
    4ab2:	0000      	movs	r0, r0
    4ab4:	1116      	asrs	r6, r2, #4
    4ab6:	0000      	movs	r0, r0
    4ab8:	1118      	asrs	r0, r3, #4
    4aba:	0000      	movs	r0, r0
    4abc:	111b      	asrs	r3, r3, #4
    4abe:	0000      	movs	r0, r0
    4ac0:	111e      	asrs	r6, r3, #4
    4ac2:	0000      	movs	r0, r0
    4ac4:	1121      	asrs	r1, r4, #4
    4ac6:	0000      	movs	r0, r0
    4ac8:	1124      	asrs	r4, r4, #4
    4aca:	0000      	movs	r0, r0
    4acc:	1127      	asrs	r7, r4, #4
    4ace:	0000      	movs	r0, r0
    4ad0:	112a      	asrs	r2, r5, #4
    4ad2:	0000      	movs	r0, r0
    4ad4:	112d      	asrs	r5, r5, #4
    4ad6:	0000      	movs	r0, r0
    4ad8:	1130      	asrs	r0, r6, #4
    4ada:	0000      	movs	r0, r0
    4adc:	1133      	asrs	r3, r6, #4
    4ade:	0000      	movs	r0, r0
    4ae0:	1136      	asrs	r6, r6, #4
    4ae2:	0000      	movs	r0, r0
    4ae4:	1138      	asrs	r0, r7, #4
    4ae6:	0000      	movs	r0, r0
    4ae8:	113a      	asrs	r2, r7, #4
    4aea:	0000      	movs	r0, r0
    4aec:	113c      	asrs	r4, r7, #4
    4aee:	0000      	movs	r0, r0
    4af0:	113e      	asrs	r6, r7, #4
    4af2:	0000      	movs	r0, r0
    4af4:	1140      	asrs	r0, r0, #5
    4af6:	0000      	movs	r0, r0
    4af8:	1142      	asrs	r2, r0, #5
    4afa:	0000      	movs	r0, r0
    4afc:	1144      	asrs	r4, r0, #5
    4afe:	0000      	movs	r0, r0
    4b00:	1146      	asrs	r6, r0, #5
    4b02:	0000      	movs	r0, r0
    4b04:	1148      	asrs	r0, r1, #5
    4b06:	0000      	movs	r0, r0
    4b08:	114a      	asrs	r2, r1, #5
    4b0a:	0000      	movs	r0, r0
    4b0c:	114c      	asrs	r4, r1, #5
    4b0e:	0000      	movs	r0, r0
    4b10:	114e      	asrs	r6, r1, #5
    4b12:	0000      	movs	r0, r0
    4b14:	1150      	asrs	r0, r2, #5
    4b16:	0000      	movs	r0, r0
    4b18:	1152      	asrs	r2, r2, #5
    4b1a:	0000      	movs	r0, r0
    4b1c:	1154      	asrs	r4, r2, #5
    4b1e:	0000      	movs	r0, r0
    4b20:	1156      	asrs	r6, r2, #5
    4b22:	0000      	movs	r0, r0
    4b24:	1158      	asrs	r0, r3, #5
    4b26:	0000      	movs	r0, r0
    4b28:	115a      	asrs	r2, r3, #5
    4b2a:	0000      	movs	r0, r0
    4b2c:	115c      	asrs	r4, r3, #5
    4b2e:	0000      	movs	r0, r0
    4b30:	115e      	asrs	r6, r3, #5
    4b32:	0000      	movs	r0, r0
    4b34:	1160      	asrs	r0, r4, #5
    4b36:	0000      	movs	r0, r0
    4b38:	1162      	asrs	r2, r4, #5
    4b3a:	0000      	movs	r0, r0
    4b3c:	1165      	asrs	r5, r4, #5
    4b3e:	0000      	movs	r0, r0
    4b40:	1168      	asrs	r0, r5, #5
    4b42:	0000      	movs	r0, r0
    4b44:	116b      	asrs	r3, r5, #5
    4b46:	0000      	movs	r0, r0
    4b48:	116e      	asrs	r6, r5, #5
    4b4a:	0000      	movs	r0, r0
    4b4c:	1171      	asrs	r1, r6, #5
    4b4e:	0000      	movs	r0, r0
    4b50:	1174      	asrs	r4, r6, #5
    4b52:	0000      	movs	r0, r0
    4b54:	1177      	asrs	r7, r6, #5
    4b56:	0000      	movs	r0, r0
    4b58:	117a      	asrs	r2, r7, #5
    4b5a:	0000      	movs	r0, r0
    4b5c:	117d      	asrs	r5, r7, #5
    4b5e:	0000      	movs	r0, r0
    4b60:	1180      	asrs	r0, r0, #6
    4b62:	0000      	movs	r0, r0
    4b64:	118e      	asrs	r6, r1, #6
    4b66:	0000      	movs	r0, r0
    4b68:	1190      	asrs	r0, r2, #6
    4b6a:	0000      	movs	r0, r0
    4b6c:	1192      	asrs	r2, r2, #6
    4b6e:	0000      	movs	r0, r0
    4b70:	1195      	asrs	r5, r2, #6
    4b72:	0000      	movs	r0, r0
    4b74:	1198      	asrs	r0, r3, #6
    4b76:	0000      	movs	r0, r0
    4b78:	119b      	asrs	r3, r3, #6
    4b7a:	0000      	movs	r0, r0
    4b7c:	119e      	asrs	r6, r3, #6
    4b7e:	0000      	movs	r0, r0
    4b80:	11a1      	asrs	r1, r4, #6
    4b82:	0000      	movs	r0, r0
    4b84:	11a4      	asrs	r4, r4, #6
    4b86:	0000      	movs	r0, r0
    4b88:	11a7      	asrs	r7, r4, #6
    4b8a:	0000      	movs	r0, r0
    4b8c:	11aa      	asrs	r2, r5, #6
    4b8e:	0000      	movs	r0, r0
    4b90:	11ad      	asrs	r5, r5, #6
    4b92:	0000      	movs	r0, r0
    4b94:	11b0      	asrs	r0, r6, #6
    4b96:	0000      	movs	r0, r0
    4b98:	11b3      	asrs	r3, r6, #6
    4b9a:	0000      	movs	r0, r0
    4b9c:	115c      	asrs	r4, r3, #5
    4b9e:	0000      	movs	r0, r0
    4ba0:	1272      	asrs	r2, r6, #9
    4ba2:	0000      	movs	r0, r0
    4ba4:	e000      	b.n	4ba8 <EnsureFrontOfChain+0x1f54>
    4ba6:	e1a0      	b.n	4eea <EnsureFrontOfChain+0x2296>
    4ba8:	1fff      	subs	r7, r7, #7
    4baa:	e89e d034 	ldmia.w	lr, {r2, r4, r5, ip, lr, pc}
    4bae:	e59e      	b.n	46ee <EnsureFrontOfChain+0x1a9a>
    4bb0:	e03c      	b.n	4c2c <EnsureFrontOfChain+0x1fd8>
    4bb2:	e59e      	b.n	46f2 <EnsureFrontOfChain+0x1a9e>
    4bb4:	ff1e e12f 	vrhadd.u16	d14, d14, d31
    4bb8:	0b20      	lsrs	r0, r4, #12
    4bba:	ec90 ff1e 	ldc	15, cr15, [r0], {30}
    4bbe:	e12f      	b.n	4e20 <EnsureFrontOfChain+0x21cc>
    4bc0:	0b20      	lsrs	r0, r4, #12
    4bc2:	ec90 ff1e 	ldc	15, cr15, [r0], {30}
    4bc6:	e12f      	b.n	4e28 <EnsureFrontOfChain+0x21d4>
    4bc8:	0b20      	lsrs	r0, r4, #12
    4bca:	ecd0 ff1e 	ldcl	15, cr15, [r0], {30}
    4bce:	e12f      	b.n	4e30 <EnsureFrontOfChain+0x21dc>
    4bd0:	4778      	bx	pc
    4bd2:	46c0      	nop			; (mov r8, r8)
    4bd4:	c000      	stmia	r0!, {}
    4bd6:	e59f      	b.n	4718 <EnsureFrontOfChain+0x1ac4>
    4bd8:	f00f e08c 	blx	413cf4 <EnsureFrontOfChain+0x4110a0>
    4bdc:	c7f8      	stmia	r7!, {r3, r4, r5, r6, r7}
    4bde:	ffff 4778 	vqshl.u32	q10, q12, #31
    4be2:	46c0      	nop			; (mov r8, r8)
    4be4:	c000      	stmia	r0!, {}
    4be6:	e59f      	b.n	4728 <EnsureFrontOfChain+0x1ad4>
    4be8:	f00f e08c 	blx	413d04 <EnsureFrontOfChain+0x4110b0>
    4bec:	c7f4      	stmia	r7!, {r2, r4, r5, r6, r7}
    4bee:	ffff 4778 	vqshl.u32	q10, q12, #31
    4bf2:	46c0      	nop			; (mov r8, r8)
    4bf4:	c000      	stmia	r0!, {}
    4bf6:	e59f      	b.n	4738 <EnsureFrontOfChain+0x1ae4>
    4bf8:	f00f e08c 	blx	413d14 <EnsureFrontOfChain+0x4110c0>
    4bfc:	c7f0      	stmia	r7!, {r4, r5, r6, r7}
    4bfe:	ffff 4778 	vqshl.u32	q10, q12, #31
    4c02:	46c0      	nop			; (mov r8, r8)
    4c04:	c000      	stmia	r0!, {}
    4c06:	e59f      	b.n	4748 <EnsureFrontOfChain+0x1af4>
    4c08:	f00f e08c 	blx	413d24 <EnsureFrontOfChain+0x4110d0>
    4c0c:	c7ec      	stmia	r7!, {r2, r3, r5, r6, r7}
    4c0e:	ffff 4778 	vqshl.u32	q10, q12, #31
    4c12:	46c0      	nop			; (mov r8, r8)
    4c14:	c000      	stmia	r0!, {}
    4c16:	e59f      	b.n	4758 <EnsureFrontOfChain+0x1b04>
    4c18:	f00f e08c 	blx	413d34 <EnsureFrontOfChain+0x4110e0>
    4c1c:	c7e8      	stmia	r7!, {r3, r5, r6, r7}
    4c1e:	ffff 4778 	vqshl.u32	q10, q12, #31
    4c22:	46c0      	nop			; (mov r8, r8)
    4c24:	c000      	stmia	r0!, {}
    4c26:	e59f      	b.n	4768 <EnsureFrontOfChain+0x1b14>
    4c28:	f00f e08c 	blx	413d44 <EnsureFrontOfChain+0x4110f0>
    4c2c:	c7e4      	stmia	r7!, {r2, r5, r6, r7}
    4c2e:	ffff 4778 	vqshl.u32	q10, q12, #31
    4c32:	46c0      	nop			; (mov r8, r8)
    4c34:	c000      	stmia	r0!, {}
    4c36:	e59f      	b.n	4778 <EnsureFrontOfChain+0x1b24>
    4c38:	f00f e08c 	blx	413d54 <EnsureFrontOfChain+0x411100>
    4c3c:	c7e0      	stmia	r7!, {r5, r6, r7}
    4c3e:	ffff 4778 	vqshl.u32	q10, q12, #31
    4c42:	46c0      	nop			; (mov r8, r8)
    4c44:	c000      	stmia	r0!, {}
    4c46:	e59f      	b.n	4788 <EnsureFrontOfChain+0x1b34>
    4c48:	f00f e08c 	blx	413d64 <EnsureFrontOfChain+0x411110>
    4c4c:	c7dc      	stmia	r7!, {r2, r3, r4, r6, r7}
    4c4e:	ffff 4778 	vqshl.u32	q10, q12, #31
    4c52:	46c0      	nop			; (mov r8, r8)
    4c54:	c000      	stmia	r0!, {}
    4c56:	e59f      	b.n	4798 <EnsureFrontOfChain+0x1b44>
    4c58:	f00f e08c 	blx	413d74 <EnsureFrontOfChain+0x411120>
    4c5c:	c7d8      	stmia	r7!, {r3, r4, r6, r7}
    4c5e:	ffff 4778 	vqshl.u32	q10, q12, #31
    4c62:	46c0      	nop			; (mov r8, r8)
    4c64:	c000      	stmia	r0!, {}
    4c66:	e59f      	b.n	47a8 <EnsureFrontOfChain+0x1b54>
    4c68:	f00f e08c 	blx	413d84 <EnsureFrontOfChain+0x411130>
    4c6c:	c7d4      	stmia	r7!, {r2, r4, r6, r7}
    4c6e:	ffff 4778 	vqshl.u32	q10, q12, #31
    4c72:	46c0      	nop			; (mov r8, r8)
    4c74:	c000      	stmia	r0!, {}
    4c76:	e59f      	b.n	47b8 <EnsureFrontOfChain+0x1b64>
    4c78:	f00f e08c 	blx	413d94 <EnsureFrontOfChain+0x411140>
    4c7c:	c7d0      	stmia	r7!, {r4, r6, r7}
    4c7e:	ffff 4778 	vqshl.u32	q10, q12, #31
    4c82:	46c0      	nop			; (mov r8, r8)
    4c84:	c000      	stmia	r0!, {}
    4c86:	e59f      	b.n	47c8 <EnsureFrontOfChain+0x1b74>
    4c88:	f00f e08c 	blx	413da4 <EnsureFrontOfChain+0x411150>
    4c8c:	c7cc      	stmia	r7!, {r2, r3, r6, r7}
    4c8e:	ffff 4778 	vqshl.u32	q10, q12, #31
    4c92:	46c0      	nop			; (mov r8, r8)
    4c94:	c000      	stmia	r0!, {}
    4c96:	e59f      	b.n	47d8 <EnsureFrontOfChain+0x1b84>
    4c98:	f00f e08c 	blx	413db4 <EnsureFrontOfChain+0x411160>
    4c9c:	c7c8      	stmia	r7!, {r3, r6, r7}
    4c9e:	ffff 4778 	vqshl.u32	q10, q12, #31
    4ca2:	46c0      	nop			; (mov r8, r8)
    4ca4:	c000      	stmia	r0!, {}
    4ca6:	e59f      	b.n	47e8 <EnsureFrontOfChain+0x1b94>
    4ca8:	f00f e08c 	blx	413dc4 <EnsureFrontOfChain+0x411170>
    4cac:	c7c4      	stmia	r7!, {r2, r6, r7}
    4cae:	ffff 4778 	vqshl.u32	q10, q12, #31
    4cb2:	46c0      	nop			; (mov r8, r8)
    4cb4:	c000      	stmia	r0!, {}
    4cb6:	e59f      	b.n	47f8 <EnsureFrontOfChain+0x1ba4>
    4cb8:	f00f e08c 	blx	413dd4 <EnsureFrontOfChain+0x411180>
    4cbc:	c7c0      	stmia	r7!, {r6, r7}
    4cbe:	ffff 4778 	vqshl.u32	q10, q12, #31
    4cc2:	46c0      	nop			; (mov r8, r8)
    4cc4:	c000      	stmia	r0!, {}
    4cc6:	e59f      	b.n	4808 <EnsureFrontOfChain+0x1bb4>
    4cc8:	f00f e08c 	blx	413de4 <EnsureFrontOfChain+0x411190>
    4ccc:	c7bc      	stmia	r7!, {r2, r3, r4, r5, r7}
    4cce:	ffff 4778 	vqshl.u32	q10, q12, #31
    4cd2:	46c0      	nop			; (mov r8, r8)
    4cd4:	c000      	stmia	r0!, {}
    4cd6:	e59f      	b.n	4818 <EnsureFrontOfChain+0x1bc4>
    4cd8:	f00f e08c 	blx	413df4 <EnsureFrontOfChain+0x4111a0>
    4cdc:	c7b8      	stmia	r7!, {r3, r4, r5, r7}
    4cde:	ffff 4778 	vqshl.u32	q10, q12, #31
    4ce2:	46c0      	nop			; (mov r8, r8)
    4ce4:	c000      	stmia	r0!, {}
    4ce6:	e59f      	b.n	4828 <EnsureFrontOfChain+0x1bd4>
    4ce8:	f00f e08c 	blx	413e04 <EnsureFrontOfChain+0x4111b0>
    4cec:	c7b4      	stmia	r7!, {r2, r4, r5, r7}
    4cee:	ffff 4778 	vqshl.u32	q10, q12, #31
    4cf2:	46c0      	nop			; (mov r8, r8)
    4cf4:	c000      	stmia	r0!, {}
    4cf6:	e59f      	b.n	4838 <EnsureFrontOfChain+0x1be4>
    4cf8:	f00f e08c 	blx	413e14 <EnsureFrontOfChain+0x4111c0>
    4cfc:	c7b0      	stmia	r7!, {r4, r5, r7}
    4cfe:	ffff 4778 	vqshl.u32	q10, q12, #31
    4d02:	46c0      	nop			; (mov r8, r8)
    4d04:	c000      	stmia	r0!, {}
    4d06:	e59f      	b.n	4848 <EnsureFrontOfChain+0x1bf4>
    4d08:	f00f e08c 	blx	413e24 <EnsureFrontOfChain+0x4111d0>
    4d0c:	c7ac      	stmia	r7!, {r2, r3, r5, r7}
    4d0e:	ffff 4778 	vqshl.u32	q10, q12, #31
    4d12:	46c0      	nop			; (mov r8, r8)
    4d14:	c000      	stmia	r0!, {}
    4d16:	e59f      	b.n	4858 <EnsureFrontOfChain+0x1c04>
    4d18:	f00f e08c 	blx	413e34 <EnsureFrontOfChain+0x4111e0>
    4d1c:	c7a8      	stmia	r7!, {r3, r5, r7}
    4d1e:	ffff 4778 	vqshl.u32	q10, q12, #31
    4d22:	46c0      	nop			; (mov r8, r8)
    4d24:	c000      	stmia	r0!, {}
    4d26:	e59f      	b.n	4868 <EnsureFrontOfChain+0x1c14>
    4d28:	f00f e08c 	blx	413e44 <EnsureFrontOfChain+0x4111f0>
    4d2c:	c7a4      	stmia	r7!, {r2, r5, r7}
    4d2e:	ffff 4778 	vqshl.u32	q10, q12, #31
    4d32:	46c0      	nop			; (mov r8, r8)
    4d34:	c000      	stmia	r0!, {}
    4d36:	e59f      	b.n	4878 <EnsureFrontOfChain+0x1c24>
    4d38:	f00f e08c 	blx	413e54 <EnsureFrontOfChain+0x411200>
    4d3c:	c7a0      	stmia	r7!, {r5, r7}
    4d3e:	ffff 4778 	vqshl.u32	q10, q12, #31
    4d42:	46c0      	nop			; (mov r8, r8)
    4d44:	c000      	stmia	r0!, {}
    4d46:	e59f      	b.n	4888 <EnsureFrontOfChain+0x1c34>
    4d48:	f00f e08c 	blx	413e64 <EnsureFrontOfChain+0x411210>
    4d4c:	c79c      	stmia	r7!, {r2, r3, r4, r7}
    4d4e:	ffff 4778 	vqshl.u32	q10, q12, #31
    4d52:	46c0      	nop			; (mov r8, r8)
    4d54:	c000      	stmia	r0!, {}
    4d56:	e59f      	b.n	4898 <EnsureFrontOfChain+0x1c44>
    4d58:	f00f e08c 	blx	413e74 <EnsureFrontOfChain+0x411220>
    4d5c:	c798      	stmia	r7!, {r3, r4, r7}
    4d5e:	ffff 4778 	vqshl.u32	q10, q12, #31
    4d62:	46c0      	nop			; (mov r8, r8)
    4d64:	c000      	stmia	r0!, {}
    4d66:	e59f      	b.n	48a8 <EnsureFrontOfChain+0x1c54>
    4d68:	f00f e08c 	blx	413e84 <EnsureFrontOfChain+0x411230>
    4d6c:	c794      	stmia	r7!, {r2, r4, r7}
    4d6e:	ffff 4778 	vqshl.u32	q10, q12, #31
    4d72:	46c0      	nop			; (mov r8, r8)
    4d74:	c000      	stmia	r0!, {}
    4d76:	e59f      	b.n	48b8 <EnsureFrontOfChain+0x1c64>
    4d78:	f00f e08c 	blx	413e94 <EnsureFrontOfChain+0x411240>
    4d7c:	c790      	stmia	r7!, {r4, r7}
    4d7e:	ffff 4778 	vqshl.u32	q10, q12, #31
    4d82:	46c0      	nop			; (mov r8, r8)
    4d84:	c000      	stmia	r0!, {}
    4d86:	e59f      	b.n	48c8 <EnsureFrontOfChain+0x1c74>
    4d88:	f00f e08c 	blx	413ea4 <EnsureFrontOfChain+0x411250>
    4d8c:	c78c      	stmia	r7!, {r2, r3, r7}
    4d8e:	ffff 4778 	vqshl.u32	q10, q12, #31
    4d92:	46c0      	nop			; (mov r8, r8)
    4d94:	c000      	stmia	r0!, {}
    4d96:	e59f      	b.n	48d8 <EnsureFrontOfChain+0x1c84>
    4d98:	f00f e08c 	blx	413eb4 <EnsureFrontOfChain+0x411260>
    4d9c:	c788      	stmia	r7!, {r3, r7}
    4d9e:	ffff 4778 	vqshl.u32	q10, q12, #31
    4da2:	46c0      	nop			; (mov r8, r8)
    4da4:	c000      	stmia	r0!, {}
    4da6:	e59f      	b.n	48e8 <EnsureFrontOfChain+0x1c94>
    4da8:	f00f e08c 	blx	413ec4 <EnsureFrontOfChain+0x411270>
    4dac:	c784      	stmia	r7!, {r2, r7}
    4dae:	ffff 4778 	vqshl.u32	q10, q12, #31
    4db2:	46c0      	nop			; (mov r8, r8)
    4db4:	c000      	stmia	r0!, {}
    4db6:	e59f      	b.n	48f8 <EnsureFrontOfChain+0x1ca4>
    4db8:	f00f e08c 	blx	413ed4 <EnsureFrontOfChain+0x411280>
    4dbc:	c780      	stmia	r7!, {r7}
    4dbe:	ffff 4778 	vqshl.u32	q10, q12, #31
    4dc2:	46c0      	nop			; (mov r8, r8)
    4dc4:	c000      	stmia	r0!, {}
    4dc6:	e59f      	b.n	4908 <EnsureFrontOfChain+0x1cb4>
    4dc8:	f00f e08c 	blx	413ee4 <EnsureFrontOfChain+0x411290>
    4dcc:	c77c      	stmia	r7!, {r2, r3, r4, r5, r6}
    4dce:	ffff 4778 	vqshl.u32	q10, q12, #31
    4dd2:	46c0      	nop			; (mov r8, r8)
    4dd4:	c000      	stmia	r0!, {}
    4dd6:	e59f      	b.n	4918 <EnsureFrontOfChain+0x1cc4>
    4dd8:	f00f e08c 	blx	413ef4 <EnsureFrontOfChain+0x4112a0>
    4ddc:	c778      	stmia	r7!, {r3, r4, r5, r6}
    4dde:	ffff 4778 	vqshl.u32	q10, q12, #31
    4de2:	46c0      	nop			; (mov r8, r8)
    4de4:	c000      	stmia	r0!, {}
    4de6:	e59f      	b.n	4928 <EnsureFrontOfChain+0x1cd4>
    4de8:	f00f e08c 	blx	413f04 <EnsureFrontOfChain+0x4112b0>
    4dec:	c774      	stmia	r7!, {r2, r4, r5, r6}
    4dee:	ffff 4778 	vqshl.u32	q10, q12, #31
    4df2:	46c0      	nop			; (mov r8, r8)
    4df4:	c000      	stmia	r0!, {}
    4df6:	e59f      	b.n	4938 <EnsureFrontOfChain+0x1ce4>
    4df8:	f00f e08c 	blx	413f14 <EnsureFrontOfChain+0x4112c0>
    4dfc:	c770      	stmia	r7!, {r4, r5, r6}
    4dfe:	ffff 4778 	vqshl.u32	q10, q12, #31
    4e02:	46c0      	nop			; (mov r8, r8)
    4e04:	c000      	stmia	r0!, {}
    4e06:	e59f      	b.n	4948 <EnsureFrontOfChain+0x1cf4>
    4e08:	f00f e08c 	blx	413f24 <EnsureFrontOfChain+0x4112d0>
    4e0c:	c76c      	stmia	r7!, {r2, r3, r5, r6}
    4e0e:	ffff 4778 	vqshl.u32	q10, q12, #31
    4e12:	46c0      	nop			; (mov r8, r8)
    4e14:	c000      	stmia	r0!, {}
    4e16:	e59f      	b.n	4958 <EnsureFrontOfChain+0x1d04>
    4e18:	f00f e08c 	blx	413f34 <EnsureFrontOfChain+0x4112e0>
    4e1c:	c768      	stmia	r7!, {r3, r5, r6}
    4e1e:	ffff 4778 	vqshl.u32	q10, q12, #31
    4e22:	46c0      	nop			; (mov r8, r8)
    4e24:	c000      	stmia	r0!, {}
    4e26:	e59f      	b.n	4968 <EnsureFrontOfChain+0x1d14>
    4e28:	f00f e08c 	blx	413f44 <EnsureFrontOfChain+0x4112f0>
    4e2c:	c764      	stmia	r7!, {r2, r5, r6}
    4e2e:	ffff 4778 	vqshl.u32	q10, q12, #31
    4e32:	46c0      	nop			; (mov r8, r8)
    4e34:	c000      	stmia	r0!, {}
    4e36:	e59f      	b.n	4978 <EnsureFrontOfChain+0x1d24>
    4e38:	f00f e08c 	blx	413f54 <EnsureFrontOfChain+0x411300>
    4e3c:	c760      	stmia	r7!, {r5, r6}
    4e3e:	ffff 4778 	vqshl.u32	q10, q12, #31
    4e42:	46c0      	nop			; (mov r8, r8)
    4e44:	c000      	stmia	r0!, {}
    4e46:	e59f      	b.n	4988 <EnsureFrontOfChain+0x1d34>
    4e48:	f00f e08c 	blx	413f64 <EnsureFrontOfChain+0x411310>
    4e4c:	c75c      	stmia	r7!, {r2, r3, r4, r6}
    4e4e:	ffff 4778 	vqshl.u32	q10, q12, #31
    4e52:	46c0      	nop			; (mov r8, r8)
    4e54:	c000      	stmia	r0!, {}
    4e56:	e59f      	b.n	4998 <EnsureFrontOfChain+0x1d44>
    4e58:	f00f e08c 	blx	413f74 <EnsureFrontOfChain+0x411320>
    4e5c:	c758      	stmia	r7!, {r3, r4, r6}
    4e5e:	ffff 4778 	vqshl.u32	q10, q12, #31
    4e62:	46c0      	nop			; (mov r8, r8)
    4e64:	c000      	stmia	r0!, {}
    4e66:	e59f      	b.n	49a8 <EnsureFrontOfChain+0x1d54>
    4e68:	f00f e08c 	blx	413f84 <EnsureFrontOfChain+0x411330>
    4e6c:	c754      	stmia	r7!, {r2, r4, r6}
    4e6e:	ffff 4778 	vqshl.u32	q10, q12, #31
    4e72:	46c0      	nop			; (mov r8, r8)
    4e74:	c000      	stmia	r0!, {}
    4e76:	e59f      	b.n	49b8 <EnsureFrontOfChain+0x1d64>
    4e78:	f00f e08c 	blx	413f94 <EnsureFrontOfChain+0x411340>
    4e7c:	c750      	stmia	r7!, {r4, r6}
